; generated by Component: ARM Compiler 5.06 update 6 (build 750) Tool: ArmCC [4d3637]
; commandline ArmCC [--c99 --list --split_sections --debug -c --asm --interleave -o..\..\output\encode.o --asm_dir=..\..\Listing\ --list_dir=..\..\Listing\ --depend=..\..\output\encode.d --cpu=Cortex-M3 --apcs=interwork -O0 --diag_suppress=9931 -I..\..\Libraries\CMSIS -I..\..\User -I..\..\Libraries\FWlib\inc -I..\..\User\FATFS\option -I..\..\User\FATFS -I..\..\User\delay -I..\..\User\onenet\inc -I..\..\User\device\inc -I..\..\User\EDP -I..\..\User\onenet\inc -I..\..\User\hwtimer -I..\..\User\JPEGENCODE -I..\..\User\MALLOC -I..\..\User\dht11 -I..\..\User\flame -I..\..\User\warning -I..\..\User\beep -I..\..\User\adc -I..\..\User\IIC -I..\..\Freee-RTOS\include -I..\..\Freee-RTOS\portable\RVDS\ARM_CM3 -I..\..\User\IWDG -I..\..\User\light_moto -I..\..\User\M8266WIFI -I.\RTE\_____ -IF:\Keil_v5\ARM\PACK\Keil\STM32F1xx_DFP\2.2.0\Device\Include -IF:\Keil_v5\ARM\CMSIS\Include -D__MICROLIB -D__UVISION_VERSION=525 -DSTM32F10X_HD -DSTM32F10X_HD -DUSE_STDPERIPH_DRIVER --omf_browse=..\..\output\encode.crf ..\..\User\JPEGENCODE\encode.c]
                          THUMB

                          AREA ||i.JPEG_encode||, CODE, READONLY, ALIGN=2

                  JPEG_encode PROC
;;;27     extern u32 lcdid;
;;;28     _Bool JPEG_encode(char *filename)//编码主函数
000000  e92d47f0          PUSH     {r4-r10,lr}
;;;29     {
000004  4680              MOV      r8,r0
;;;30     
;;;31     	u8 res;
;;;32     	u16 count,i,color;
;;;33     	jpeg_compress_info* cinfo;
;;;34     	JSAMPLE *inbuf_buf;
;;;35     
;;;36     	
;;;37     	
;;;38     //	#if JPG_USE_MALLOC == 1	//使用malloc	
;;;39     	cinfo=(jpeg_compress_info*)malloc(sizeof(jpeg_compress_info));	
000006  f44f7084          MOV      r0,#0x108
00000a  f7fffffe          BL       malloc
00000e  4604              MOV      r4,r0
;;;40     	if(cinfo==NULL)
000010  b914              CBNZ     r4,|L1.24|
;;;41     	{
;;;42     		printf("malloc cinfo failed");
000012  a071              ADR      r0,|L1.472|
000014  f7fffffe          BL       __2printf
                  |L1.24|
;;;43     	}
;;;44     		inbuf_buf=(u8*)malloc(camera_WIDTH*3*16*sizeof(u8));		//开辟readlen字节的内存区域
000018  f44f40b4          MOV      r0,#0x5a00
00001c  f7fffffe          BL       malloc
000020  4605              MOV      r5,r0
;;;45     	if(inbuf_buf==NULL)
000022  b915              CBNZ     r5,|L1.42|
;;;46     	{
;;;47     		printf("malloc buf faild");
000024  a071              ADR      r0,|L1.492|
000026  f7fffffe          BL       __2printf
                  |L1.42|
;;;48     	}
;;;49     	//memset((void*)(inbuf_buf),0,sizeof(inbuf_buf));//所有元素清零
;;;50     //	if(inbuf_buf==NULL)return PIC_MEM_ERR;	//内存申请失败.
;;;51     	fileW=(FIL *)malloc(sizeof(FIL));	//开辟FIL字节的内存区域 
00002a  f2410024          MOV      r0,#0x1024
00002e  f7fffffe          BL       malloc
000032  4973              LDR      r1,|L1.512|
000034  6008              STR      r0,[r1,#0]  ; fileW
;;;52     	if(fileW==NULL||cinfo==NULL||inbuf_buf==NULL)							//内存申请失败.
000036  4608              MOV      r0,r1
000038  6800              LDR      r0,[r0,#0]  ; fileW
00003a  b108              CBZ      r0,|L1.64|
00003c  b104              CBZ      r4,|L1.64|
00003e  b97d              CBNZ     r5,|L1.96|
                  |L1.64|
;;;53     	{
;;;54     		printf("	JPEG_encode//内存申请失败.");///////////////////////////////////////////
000040  a070              ADR      r0,|L1.516|
000042  f7fffffe          BL       __2printf
;;;55     		free(cinfo);
000046  4620              MOV      r0,r4
000048  f7fffffe          BL       free
;;;56     		free(inbuf_buf);
00004c  4628              MOV      r0,r5
00004e  f7fffffe          BL       free
;;;57     		free(fileW);
000052  486b              LDR      r0,|L1.512|
000054  6800              LDR      r0,[r0,#0]  ; fileW
000056  f7fffffe          BL       free
;;;58     		return 1;
00005a  2001              MOVS     r0,#1
                  |L1.92|
;;;59     	} 	 
;;;60     	res = f_open( fileW , (char*)filename, FA_CREATE_ALWAYS | FA_WRITE );	
;;;61     	/* 新建文件之后要先关闭再打开才能写入 */
;;;62     	f_close(fileW);		
;;;63     	res = f_open( fileW , (char*)filename,  FA_OPEN_EXISTING | FA_WRITE);
;;;64       if(res==FR_OK)
;;;65     	{	
;;;66     	cinfo->state=JC_CREATING;  
;;;67     	memset((void*)(cinfo),0,sizeof(jpeg_compress_info));//所有元素清零
;;;68     	cinfo->image_width=camera_WIDTH;
;;;69       cinfo->image_height=camera_HEIGHT;
;;;70       cinfo->output=0;//数据输出到NULL;
;;;71     	cinfo->fileW=fileW;//文件/////////////文件///////////文件///////////文件/////////////文件///////////文件/////////
;;;72     	jpeg_set_default(cinfo,inbuf_buf);//设置默认参数
;;;73     	jpeg_start_compress(cinfo);//开始压缩,写压缩文件头信息
;;;74     	
;;;75     		  	 //printf("	JPEG_encode//开始压缩,写压缩文件头信息");///////////////////////////////////////////
;;;76     	
;;;77     	FIFO_PREPARE;  			/*FIFO准备*/					
;;;78       count=0;
;;;79     	while(cinfo->next_line<cinfo->image_height)
;;;80     	{
;;;81     		for(i=0;i<camera_WIDTH;i++)//读取一行
;;;82     		{
;;;83     			READ_FIFO_PIXEL(color);
;;;84     		 cinfo->inbuf[count++]=(u8)((color&0xf800)>>8);
;;;85     			cinfo->inbuf[count++]=(u8)((color&0x07e0)>>3);
;;;86     			cinfo->inbuf[count++]=(u8)((color&0x001f)<<3);						
;;;87     		}
;;;88     		
;;;89     		cinfo->next_line++; 
;;;90     	  	//当数据填满时压缩并输出数据(填满16行)
;;;91     	  	if(cinfo->next_line%cinfo->inbuf_height==0)
;;;92     		{
;;;93     			count=0;
;;;94     	    	jint_process_rows(cinfo);//在这里压缩
;;;95           	memset((void*)(cinfo->inbuf),0,cinfo->inbuf_size);//清空输入缓冲区
;;;96     			
;;;97     	  	}
;;;98     	}	
;;;99     	jpeg_finish_compress(cinfo);
;;;100    	printf("	JPEG_encode//jpeg_finish_compress(cinfo)");///////////////////////////////////////////
;;;101    	f_close(fileW);
;;;102    	free(cinfo);
;;;103    	free(inbuf_buf);
;;;104    	free(fileW);
;;;105    	return 0;
;;;106    }
;;;107    	else
;;;108    	{
;;;109    		printf("open faild");
;;;110    		free(cinfo);
;;;111    		vPortFree(inbuf_buf);
;;;112    		free(fileW);
;;;113    		return 1;
;;;114    	}
;;;115    }
00005c  e8bd87f0          POP      {r4-r10,pc}
                  |L1.96|
000060  220a              MOVS     r2,#0xa               ;60
000062  4641              MOV      r1,r8                 ;60
000064  4866              LDR      r0,|L1.512|
000066  6800              LDR      r0,[r0,#0]            ;60  ; fileW
000068  f7fffffe          BL       f_open
00006c  4682              MOV      r10,r0                ;60
00006e  4864              LDR      r0,|L1.512|
000070  6800              LDR      r0,[r0,#0]            ;62  ; fileW
000072  f7fffffe          BL       f_close
000076  2202              MOVS     r2,#2                 ;63
000078  4641              MOV      r1,r8                 ;63
00007a  4861              LDR      r0,|L1.512|
00007c  6800              LDR      r0,[r0,#0]            ;63  ; fileW
00007e  f7fffffe          BL       f_open
000082  4682              MOV      r10,r0                ;63
000084  f1ba0f00          CMP      r10,#0                ;64
000088  d17e              BNE      |L1.392|
00008a  2000              MOVS     r0,#0                 ;66
00008c  f88400fc          STRB     r0,[r4,#0xfc]         ;66
000090  f44f7184          MOV      r1,#0x108             ;67
000094  4620              MOV      r0,r4                 ;67
000096  f7fffffe          BL       __aeabi_memclr4
00009a  f44f70f0          MOV      r0,#0x1e0             ;68
00009e  6020              STR      r0,[r4,#0]            ;68
0000a0  f44f7088          MOV      r0,#0x110             ;69
0000a4  6060              STR      r0,[r4,#4]            ;69
0000a6  2000              MOVS     r0,#0                 ;70
0000a8  60a0              STR      r0,[r4,#8]            ;70
0000aa  4855              LDR      r0,|L1.512|
0000ac  6800              LDR      r0,[r0,#0]            ;71  ; fileW
0000ae  f8c40104          STR      r0,[r4,#0x104]        ;71
0000b2  4629              MOV      r1,r5                 ;72
0000b4  4620              MOV      r0,r4                 ;72
0000b6  f7fffffe          BL       jpeg_set_default
0000ba  4620              MOV      r0,r4                 ;73
0000bc  f7fffffe          BL       jpeg_start_compress
0000c0  bf00              NOP                            ;77
0000c2  2004              MOVS     r0,#4                 ;77
0000c4  4956              LDR      r1,|L1.544|
0000c6  6008              STR      r0,[r1,#0]            ;77
0000c8  2020              MOVS     r0,#0x20              ;77
0000ca  4956              LDR      r1,|L1.548|
0000cc  6148              STR      r0,[r1,#0x14]         ;77
0000ce  6108              STR      r0,[r1,#0x10]         ;77
0000d0  2004              MOVS     r0,#4                 ;77
0000d2  4953              LDR      r1,|L1.544|
0000d4  1f09              SUBS     r1,r1,#4              ;77
0000d6  6008              STR      r0,[r1,#0]            ;77
0000d8  2020              MOVS     r0,#0x20              ;77
0000da  4952              LDR      r1,|L1.548|
0000dc  6148              STR      r0,[r1,#0x14]         ;77
0000de  6108              STR      r0,[r1,#0x10]         ;77
0000e0  bf00              NOP                            ;77
0000e2  2600              MOVS     r6,#0                 ;78
0000e4  e04c              B        |L1.384|
                  |L1.230|
0000e6  f04f0900          MOV      r9,#0                 ;81
0000ea  e030              B        |L1.334|
                  |L1.236|
0000ec  bf00              NOP                            ;83
0000ee  2700              MOVS     r7,#0                 ;83
0000f0  2020              MOVS     r0,#0x20              ;83
0000f2  494c              LDR      r1,|L1.548|
0000f4  6148              STR      r0,[r1,#0x14]         ;83
0000f6  484c              LDR      r0,|L1.552|
0000f8  6800              LDR      r0,[r0,#0]            ;83
0000fa  f400477f          AND      r7,r0,#0xff00         ;83
0000fe  2020              MOVS     r0,#0x20              ;83
000100  6108              STR      r0,[r1,#0x10]         ;83
000102  6148              STR      r0,[r1,#0x14]         ;83
000104  4848              LDR      r0,|L1.552|
000106  6800              LDR      r0,[r0,#0]            ;83
000108  f3c02007          UBFX     r0,r0,#8,#8           ;83
00010c  4307              ORRS     r7,r7,r0              ;83
00010e  2020              MOVS     r0,#0x20              ;83
000110  6108              STR      r0,[r1,#0x10]         ;83
000112  bf00              NOP                            ;83
000114  f4074078          AND      r0,r7,#0xf800         ;84
000118  1202              ASRS     r2,r0,#8              ;84
00011a  f8543fec          LDR      r3,[r4,#0xec]!        ;84
00011e  4630              MOV      r0,r6                 ;84
000120  1c71              ADDS     r1,r6,#1              ;84
000122  b28e              UXTH     r6,r1                 ;84
000124  541a              STRB     r2,[r3,r0]            ;84
000126  f40760fc          AND      r0,r7,#0x7e0          ;85
00012a  10c2              ASRS     r2,r0,#3              ;85
00012c  4630              MOV      r0,r6                 ;85
00012e  1c71              ADDS     r1,r6,#1              ;85
000130  b28e              UXTH     r6,r1                 ;85
000132  6823              LDR      r3,[r4,#0]            ;85
000134  541a              STRB     r2,[r3,r0]            ;85
000136  06f8              LSLS     r0,r7,#27             ;86
000138  0e02              LSRS     r2,r0,#24             ;86
00013a  f85439ec          LDR      r3,[r4],#-0xec        ;86
00013e  4630              MOV      r0,r6                 ;86
000140  1c71              ADDS     r1,r6,#1              ;86
000142  b28e              UXTH     r6,r1                 ;86
000144  541a              STRB     r2,[r3,r0]            ;86
000146  f1090001          ADD      r0,r9,#1              ;81
00014a  fa1ff980          UXTH     r9,r0                 ;81
                  |L1.334|
00014e  f5b97ff0          CMP      r9,#0x1e0             ;81
000152  dbcb              BLT      |L1.236|
000154  34f4              ADDS     r4,r4,#0xf4           ;89
000156  68e0              LDR      r0,[r4,#0xc]          ;89
000158  1c40              ADDS     r0,r0,#1              ;89
00015a  60e0              STR      r0,[r4,#0xc]          ;89
00015c  68e0              LDR      r0,[r4,#0xc]          ;91
00015e  f85419f4          LDR      r1,[r4],#-0xf4        ;91
000162  fb90f2f1          SDIV     r2,r0,r1              ;91
000166  fb010012          MLS      r0,r1,r2,r0           ;91
00016a  b948              CBNZ     r0,|L1.384|
00016c  2600              MOVS     r6,#0                 ;93
00016e  4620              MOV      r0,r4                 ;94
000170  f7fffffe          BL       jint_process_rows
000174  f8d410f8          LDR      r1,[r4,#0xf8]         ;95
000178  f8d400ec          LDR      r0,[r4,#0xec]         ;95
00017c  f7fffffe          BL       __aeabi_memclr
                  |L1.384|
000180  6861              LDR      r1,[r4,#4]            ;79
000182  f8d40100          LDR      r0,[r4,#0x100]        ;79
000186  e000              B        |L1.394|
                  |L1.392|
000188  e017              B        |L1.442|
                  |L1.394|
00018a  4288              CMP      r0,r1                 ;79
00018c  dbab              BLT      |L1.230|
00018e  4620              MOV      r0,r4                 ;99
000190  f7fffffe          BL       jpeg_finish_compress
000194  a025              ADR      r0,|L1.556|
000196  f7fffffe          BL       __2printf
00019a  4819              LDR      r0,|L1.512|
00019c  6800              LDR      r0,[r0,#0]            ;101  ; fileW
00019e  f7fffffe          BL       f_close
0001a2  4620              MOV      r0,r4                 ;102
0001a4  f7fffffe          BL       free
0001a8  4628              MOV      r0,r5                 ;103
0001aa  f7fffffe          BL       free
0001ae  4814              LDR      r0,|L1.512|
0001b0  6800              LDR      r0,[r0,#0]            ;104  ; fileW
0001b2  f7fffffe          BL       free
0001b6  2000              MOVS     r0,#0                 ;105
0001b8  e750              B        |L1.92|
                  |L1.442|
0001ba  a027              ADR      r0,|L1.600|
0001bc  f7fffffe          BL       __2printf
0001c0  4620              MOV      r0,r4                 ;110
0001c2  f7fffffe          BL       free
0001c6  4628              MOV      r0,r5                 ;111
0001c8  f7fffffe          BL       vPortFree
0001cc  480c              LDR      r0,|L1.512|
0001ce  6800              LDR      r0,[r0,#0]            ;112  ; fileW
0001d0  f7fffffe          BL       free
0001d4  2001              MOVS     r0,#1                 ;113
0001d6  e741              B        |L1.92|
;;;116    ///////////////////////////////////////////////////////////////////////////////////////////
                          ENDP

                  |L1.472|
0001d8  6d616c6c          DCB      "malloc cinfo failed",0
0001dc  6f632063
0001e0  696e666f
0001e4  20666169
0001e8  6c656400
                  |L1.492|
0001ec  6d616c6c          DCB      "malloc buf faild",0
0001f0  6f632062
0001f4  75662066
0001f8  61696c64
0001fc  00      
0001fd  00                DCB      0
0001fe  00                DCB      0
0001ff  00                DCB      0
                  |L1.512|
                          DCD      fileW
                  |L1.516|
000204  094a5045          DCB      "\tJPEG_encode//",196,218,180,230,201,234,199,235,202,167
000208  475f656e
00020c  636f6465
000210  2f2fc4da
000214  b4e6c9ea
000218  c7ebcaa7
00021c  b0dc2e00          DCB      176,220,".",0
                  |L1.544|
                          DCD      0x40010814
                  |L1.548|
                          DCD      0x40011000
                  |L1.552|
                          DCD      0x40010c08
                  |L1.556|
00022c  094a5045          DCB      "\tJPEG_encode//jpeg_finish_compress(cinfo)",0
000230  475f656e
000234  636f6465
000238  2f2f6a70
00023c  65675f66
000240  696e6973
000244  685f636f
000248  6d707265
00024c  73732863
000250  696e666f
000254  2900    
000256  00                DCB      0
000257  00                DCB      0
                  |L1.600|
000258  6f70656e          DCB      "open faild",0
00025c  20666169
000260  6c6400  
000263  00                DCB      0

                          AREA ||i.bit_num||, CODE, READONLY, ALIGN=1

                  bit_num PROC
;;;862    
;;;863    int bit_num(int a) 
000000  4601              MOV      r1,r0
;;;864    {
;;;865      	int bit=0;
000002  2200              MOVS     r2,#0
;;;866      	if(a==0)return 0;
000004  b909              CBNZ     r1,|L2.10|
000006  2000              MOVS     r0,#0
                  |L2.8|
;;;867      	a=a>0?a:-a;
;;;868      	while((1<<bit)<=a)bit++;
;;;869      	return bit;
;;;870    }
000008  4770              BX       lr
                  |L2.10|
00000a  2900              CMP      r1,#0                 ;867
00000c  dd01              BLE      |L2.18|
00000e  4608              MOV      r0,r1                 ;867
000010  e000              B        |L2.20|
                  |L2.18|
000012  4248              RSBS     r0,r1,#0              ;867
                  |L2.20|
000014  4601              MOV      r1,r0                 ;867
000016  e000              B        |L2.26|
                  |L2.24|
000018  1c52              ADDS     r2,r2,#1              ;868
                  |L2.26|
00001a  2001              MOVS     r0,#1                 ;868
00001c  4090              LSLS     r0,r0,r2              ;868
00001e  4288              CMP      r0,r1                 ;868
000020  ddfa              BLE      |L2.24|
000022  4610              MOV      r0,r2                 ;869
000024  e7f0              B        |L2.8|
;;;871    //写比特
                          ENDP


                          AREA ||i.dsp_fdct_8x8||, CODE, READONLY, ALIGN=2

                  dsp_fdct_8x8 PROC
;;;553    volatile int temp_dct1[64];
;;;554    void dsp_fdct_8x8(short *dct_data, unsigned num_fdcts)
000000  e92d4ff3          PUSH     {r0,r1,r4-r11,lr}
;;;555    {
000004  b0b1              SUB      sp,sp,#0xc4
;;;556      	const u16 c1=0x2C62,c3=0x25A0;
000006  f6424a62          MOV      r10,#0x2c62
00000a  f8cda0c0          STR      r10,[sp,#0xc0]
00000e  f2425aa0          MOV      r10,#0x25a0
000012  f8cda0bc          STR      r10,[sp,#0xbc]
;;;557      	const u16 c5=0x1924,c7=0x08D4;
000016  f6411a24          MOV      r10,#0x1924
00001a  f8cda0b8          STR      r10,[sp,#0xb8]
00001e  f6400ad4          MOV      r10,#0x8d4
000022  f8cda0b4          STR      r10,[sp,#0xb4]
;;;558      	const u16 c0=0xB505,c2=0x29CF;
000026  f24b5a05          MOV      r10,#0xb505
00002a  f8cda0b0          STR      r10,[sp,#0xb0]
00002e  f6421acf          MOV      r10,#0x29cf
000032  f8cda0ac          STR      r10,[sp,#0xac]
;;;559      	const u16 c6=0x1151;
000036  f2411a51          MOV      r10,#0x1151
00003a  f8cda0a8          STR      r10,[sp,#0xa8]
;;;560      	short f0,f1,f2,f3,f4,f5,f6,f7;		
;;;561      	int   g0,g1,h0,h1,p0,p1;
;;;562      	short r0,r1;
;;;563      	int P00,P11,R00,R11;
;;;564      	short g2,g3,h2,h3;
;;;565      	short q0a,s0a,q0,q1,s0,s1;
;;;566      	short Q0,Q1,S0,S1;
;;;567      	int   F0,F1,F2,F3,F4,F5,F6,F7;
;;;568      	int   F0r,F1r,F2r,F3r,F4r,F5r,F6r,F7r;
;;;569      	unsigned i,j;
;;;570      	short *dct_io_ptr;
;;;571    	dct_io_ptr=dct_data;
00003e  9831              LDR      r0,[sp,#0xc4]
;;;572    	for(i=0;i<64;i++)temp_dct1[i]=dct_data[i];
000040  2100              MOVS     r1,#0
000042  e008              B        |L3.86|
                  |L3.68|
000044  f8dda0c4          LDR      r10,[sp,#0xc4]
000048  f93aa011          LDRSH    r10,[r10,r1,LSL #1]
00004c  f8dfb614          LDR      r11,|L3.1636|
000050  f84ba021          STR      r10,[r11,r1,LSL #2]
000054  1c49              ADDS     r1,r1,#1
                  |L3.86|
000056  2940              CMP      r1,#0x40
000058  d3f4              BCC      |L3.68|
;;;573    	for(i=0;i<num_fdcts;i++)
00005a  2100              MOVS     r1,#0
00005c  e168              B        |L3.816|
                  |L3.94|
;;;574    	{
;;;575    		for(j=0;j<8;j++)
00005e  f04f0a00          MOV      r10,#0
000062  f8cda000          STR      r10,[sp,#0]
000066  e15b              B        |L3.800|
                  |L3.104|
;;;576    		{
;;;577    			f0=dct_io_ptr[0];
000068  f9b06000          LDRSH    r6,[r0,#0]
;;;578    			f1=dct_io_ptr[8];
00006c  f9b07010          LDRSH    r7,[r0,#0x10]
;;;579    			f2=dct_io_ptr[16];
000070  f9b0c020          LDRSH    r12,[r0,#0x20]
;;;580    			f3=dct_io_ptr[24];
000074  f9b08030          LDRSH    r8,[r0,#0x30]
;;;581    			f4=dct_io_ptr[32];
000078  f9b09040          LDRSH    r9,[r0,#0x40]
;;;582    			f5=dct_io_ptr[40];
00007c  f9b0a050          LDRSH    r10,[r0,#0x50]
000080  f8cda0a4          STR      r10,[sp,#0xa4]
;;;583    			f6=dct_io_ptr[48];
000084  f9b0a060          LDRSH    r10,[r0,#0x60]
000088  f8cda0a0          STR      r10,[sp,#0xa0]
;;;584    			f7=dct_io_ptr[56];
00008c  f9b0a070          LDRSH    r10,[r0,#0x70]
000090  f8cda09c          STR      r10,[sp,#0x9c]
;;;585    			g0=f0+f7;h2=f0-f7;
000094  f8dda09c          LDR      r10,[sp,#0x9c]
000098  44b2              ADD      r10,r10,r6
00009a  f8cda098          STR      r10,[sp,#0x98]
00009e  f8dda09c          LDR      r10,[sp,#0x9c]
0000a2  eba60a0a          SUB      r10,r6,r10
0000a6  fa0ff38a          SXTH     r3,r10
;;;586    			g1=f1+f6;h3=f1-f6;
0000aa  f8dda0a0          LDR      r10,[sp,#0xa0]
0000ae  44ba              ADD      r10,r10,r7
0000b0  f8cda094          STR      r10,[sp,#0x94]
0000b4  f8dda0a0          LDR      r10,[sp,#0xa0]
0000b8  eba70a0a          SUB      r10,r7,r10
0000bc  fa0ffa8a          SXTH     r10,r10
0000c0  f8cda064          STR      r10,[sp,#0x64]
;;;587    			h1=f2+f5;g3=f2-f5;
0000c4  f8dda0a4          LDR      r10,[sp,#0xa4]
0000c8  44e2              ADD      r10,r10,r12
0000ca  f8cda08c          STR      r10,[sp,#0x8c]
0000ce  f8dda0a4          LDR      r10,[sp,#0xa4]
0000d2  ebac0a0a          SUB      r10,r12,r10
0000d6  fa0ffa8a          SXTH     r10,r10
0000da  f8cda068          STR      r10,[sp,#0x68]
;;;588    			h0=f3+f4;g2=f3-f4;
0000de  eb080a09          ADD      r10,r8,r9
0000e2  f8cda090          STR      r10,[sp,#0x90]
0000e6  eba80a09          SUB      r10,r8,r9
0000ea  fa0ff28a          SXTH     r2,r10
;;;589    			p0=g0+h0;r0=g0-h0;
0000ee  f8ddb090          LDR      r11,[sp,#0x90]
0000f2  f8dda098          LDR      r10,[sp,#0x98]
0000f6  44da              ADD      r10,r10,r11
0000f8  f8cda088          STR      r10,[sp,#0x88]
0000fc  f8ddb090          LDR      r11,[sp,#0x90]
000100  f8dda098          LDR      r10,[sp,#0x98]
000104  ebaa0a0b          SUB      r10,r10,r11
000108  fa0ffa8a          SXTH     r10,r10
00010c  f8cda080          STR      r10,[sp,#0x80]
;;;590    			p1=g1+h1;r1=g1-h1;
000110  f8ddb08c          LDR      r11,[sp,#0x8c]
000114  f8dda094          LDR      r10,[sp,#0x94]
000118  44da              ADD      r10,r10,r11
00011a  f8cda084          STR      r10,[sp,#0x84]
00011e  f8ddb08c          LDR      r11,[sp,#0x8c]
000122  f8dda094          LDR      r10,[sp,#0x94]
000126  ebaa0a0b          SUB      r10,r10,r11
00012a  fa0ffa8a          SXTH     r10,r10
00012e  f8cda07c          STR      r10,[sp,#0x7c]
;;;591    			q1=g2;s1=h2;
000132  4614              MOV      r4,r2
000134  461d              MOV      r5,r3
;;;592    			s0a=h3+g3;q0a=h3-g3;
000136  e9ddab19          LDRD     r10,r11,[sp,#0x64]
00013a  44da              ADD      r10,r10,r11
00013c  fa0ffa8a          SXTH     r10,r10
000140  f8cda05c          STR      r10,[sp,#0x5c]
000144  e9ddab19          LDRD     r10,r11,[sp,#0x64]
000148  ebaa0a0b          SUB      r10,r10,r11
00014c  fa0ffa8a          SXTH     r10,r10
000150  f8cda060          STR      r10,[sp,#0x60]
;;;593    			s0=(s0a*c0+0x7FFF)>>16;
000154  f24b5b05          MOV      r11,#0xb505
000158  f8dda05c          LDR      r10,[sp,#0x5c]
00015c  fb0afa0b          MUL      r10,r10,r11
000160  f6477bff          MOV      r11,#0x7fff
000164  44da              ADD      r10,r10,r11
000166  ea4f4a2a          ASR      r10,r10,#16
00016a  f8cda054          STR      r10,[sp,#0x54]
;;;594    			q0=(q0a*c0+0x7FFF)>>16;
00016e  f24b5b05          MOV      r11,#0xb505
000172  f8dda060          LDR      r10,[sp,#0x60]
000176  fb0afa0b          MUL      r10,r10,r11
00017a  f6477bff          MOV      r11,#0x7fff
00017e  44da              ADD      r10,r10,r11
000180  ea4f4a2a          ASR      r10,r10,#16
000184  f8cda058          STR      r10,[sp,#0x58]
;;;595    			P00=p0+p1;P11=p0-p1;
000188  e9ddba21          LDRD     r11,r10,[sp,#0x84]
00018c  44da              ADD      r10,r10,r11
00018e  f8cda078          STR      r10,[sp,#0x78]
000192  e9ddba21          LDRD     r11,r10,[sp,#0x84]
000196  ebaa0a0b          SUB      r10,r10,r11
00019a  f8cda074          STR      r10,[sp,#0x74]
;;;596    			R11=c6*r1+c2*r0;R00=c6*r0-c2*r1;
00019e  f2411b51          MOV      r11,#0x1151
0001a2  f8dda07c          LDR      r10,[sp,#0x7c]
0001a6  fb0afb0b          MUL      r11,r10,r11
0001aa  f6421ecf          MOV      lr,#0x29cf
0001ae  f8dda080          LDR      r10,[sp,#0x80]
0001b2  fb0eba0a          MLA      r10,lr,r10,r11
0001b6  f8cda06c          STR      r10,[sp,#0x6c]
0001ba  f2411b51          MOV      r11,#0x1151
0001be  f8dda080          LDR      r10,[sp,#0x80]
0001c2  fb0afb0b          MUL      r11,r10,r11
0001c6  f8dda07c          LDR      r10,[sp,#0x7c]
0001ca  fb0eba1a          MLS      r10,lr,r10,r11
0001ce  f8cda070          STR      r10,[sp,#0x70]
;;;597    			Q1=q1+q0;Q0=q1-q0;
0001d2  4622              MOV      r2,r4
0001d4  f8dda058          LDR      r10,[sp,#0x58]
0001d8  44a2              ADD      r10,r10,r4
0001da  fa0ffa8a          SXTH     r10,r10
0001de  f8cda04c          STR      r10,[sp,#0x4c]
0001e2  f8dda058          LDR      r10,[sp,#0x58]
0001e6  eba40a0a          SUB      r10,r4,r10
0001ea  fa0ffa8a          SXTH     r10,r10
0001ee  f8cda050          STR      r10,[sp,#0x50]
;;;598    			S1=s1+s0;S0=s1-s0;
0001f2  462b              MOV      r3,r5
0001f4  f8dda054          LDR      r10,[sp,#0x54]
0001f8  44aa              ADD      r10,r10,r5
0001fa  fa0ffa8a          SXTH     r10,r10
0001fe  f8cda044          STR      r10,[sp,#0x44]
000202  f8dda054          LDR      r10,[sp,#0x54]
000206  eba50a0a          SUB      r10,r5,r10
00020a  fa0ffa8a          SXTH     r10,r10
00020e  f8cda048          STR      r10,[sp,#0x48]
;;;599    			F0=P00;F4=P11;
000212  f8dda078          LDR      r10,[sp,#0x78]
000216  f8cda040          STR      r10,[sp,#0x40]
00021a  f8dda074          LDR      r10,[sp,#0x74]
00021e  f8cda030          STR      r10,[sp,#0x30]
;;;600    			F2=R11;F6=R00;
000222  f8dda06c          LDR      r10,[sp,#0x6c]
000226  f8cda038          STR      r10,[sp,#0x38]
00022a  f8dda070          LDR      r10,[sp,#0x70]
00022e  f8cda028          STR      r10,[sp,#0x28]
;;;601    			F1=c7*Q1+c1*S1;F7=c7*S1-c1*Q1;
000232  f6400bd4          MOV      r11,#0x8d4
000236  f8dda04c          LDR      r10,[sp,#0x4c]
00023a  fb0afb0b          MUL      r11,r10,r11
00023e  f6424e62          MOV      lr,#0x2c62
000242  f8dda044          LDR      r10,[sp,#0x44]
000246  fb0eba0a          MLA      r10,lr,r10,r11
00024a  f8cda03c          STR      r10,[sp,#0x3c]
00024e  f6400bd4          MOV      r11,#0x8d4
000252  f8dda044          LDR      r10,[sp,#0x44]
000256  fb0afb0b          MUL      r11,r10,r11
00025a  f8dda04c          LDR      r10,[sp,#0x4c]
00025e  fb0eba1a          MLS      r10,lr,r10,r11
000262  f8cda024          STR      r10,[sp,#0x24]
;;;602    			F5=c3*Q0+c5*S0;F3=c3*S0-c5*Q0;
000266  f2425ba0          MOV      r11,#0x25a0
00026a  f8dda050          LDR      r10,[sp,#0x50]
00026e  fb0afb0b          MUL      r11,r10,r11
000272  f6411e24          MOV      lr,#0x1924
000276  f8dda048          LDR      r10,[sp,#0x48]
00027a  fb0eba0a          MLA      r10,lr,r10,r11
00027e  f8cda02c          STR      r10,[sp,#0x2c]
000282  f2425ba0          MOV      r11,#0x25a0
000286  f8dda048          LDR      r10,[sp,#0x48]
00028a  fb0afb0b          MUL      r11,r10,r11
00028e  f8dda050          LDR      r10,[sp,#0x50]
000292  fb0eba1a          MLS      r10,lr,r10,r11
000296  f8cda034          STR      r10,[sp,#0x34]
;;;603    			dct_io_ptr[0]=F0;
00029a  f8dda040          LDR      r10,[sp,#0x40]
00029e  fa0ffa8a          SXTH     r10,r10
0002a2  f8a0a000          STRH     r10,[r0,#0]
;;;604    			dct_io_ptr[8]=F1>>13;
0002a6  f8dda03c          LDR      r10,[sp,#0x3c]
0002aa  ea4f3a6a          ASR      r10,r10,#13
0002ae  fa0ffa8a          SXTH     r10,r10
0002b2  f8a0a010          STRH     r10,[r0,#0x10]
;;;605    			dct_io_ptr[16]=F2>>13;
0002b6  f8dda038          LDR      r10,[sp,#0x38]
0002ba  ea4f3a6a          ASR      r10,r10,#13
0002be  fa0ffa8a          SXTH     r10,r10
0002c2  f8a0a020          STRH     r10,[r0,#0x20]
;;;606    			dct_io_ptr[24]=F3>>13;
0002c6  f8dda034          LDR      r10,[sp,#0x34]
0002ca  ea4f3a6a          ASR      r10,r10,#13
0002ce  fa0ffa8a          SXTH     r10,r10
0002d2  f8a0a030          STRH     r10,[r0,#0x30]
;;;607    			dct_io_ptr[32]=F4;
0002d6  f8dda030          LDR      r10,[sp,#0x30]
0002da  fa0ffa8a          SXTH     r10,r10
0002de  f8a0a040          STRH     r10,[r0,#0x40]
;;;608    			dct_io_ptr[40]=F5>>13;
0002e2  f8dda02c          LDR      r10,[sp,#0x2c]
0002e6  ea4f3a6a          ASR      r10,r10,#13
0002ea  fa0ffa8a          SXTH     r10,r10
0002ee  f8a0a050          STRH     r10,[r0,#0x50]
;;;609    			dct_io_ptr[48]=F6>>13;
0002f2  f8dda028          LDR      r10,[sp,#0x28]
0002f6  ea4f3a6a          ASR      r10,r10,#13
0002fa  fa0ffa8a          SXTH     r10,r10
0002fe  f8a0a060          STRH     r10,[r0,#0x60]
;;;610    			dct_io_ptr[56]=F7>>13;
000302  f8dda024          LDR      r10,[sp,#0x24]
000306  ea4f3a6a          ASR      r10,r10,#13
00030a  fa0ffa8a          SXTH     r10,r10
00030e  f8a0a070          STRH     r10,[r0,#0x70]
;;;611    			dct_io_ptr++;
000312  1c80              ADDS     r0,r0,#2
000314  f8dda000          LDR      r10,[sp,#0]           ;575
000318  f10a0a01          ADD      r10,r10,#1            ;575
00031c  f8cda000          STR      r10,[sp,#0]           ;575
                  |L3.800|
000320  f8dda000          LDR      r10,[sp,#0]           ;575
000324  f1ba0f08          CMP      r10,#8                ;575
000328  f4ffae9e          BCC      |L3.104|
;;;612    		}
;;;613    		dct_io_ptr+=56;
00032c  3070              ADDS     r0,r0,#0x70
00032e  1c49              ADDS     r1,r1,#1              ;573
                  |L3.816|
000330  f8dda0c8          LDR      r10,[sp,#0xc8]        ;573
000334  4551              CMP      r1,r10                ;573
000336  f4ffae92          BCC      |L3.94|
;;;614    	}
;;;615    	dct_io_ptr=dct_data;
00033a  9831              LDR      r0,[sp,#0xc4]
;;;616    	for(i=0;i<8*num_fdcts;i++)
00033c  2100              MOVS     r1,#0
00033e  e17a              B        |L3.1590|
                  |L3.832|
;;;617    	{
;;;618    		f0=dct_io_ptr[0];
000340  f9b06000          LDRSH    r6,[r0,#0]
;;;619    		f1=dct_io_ptr[1];
000344  f9b07002          LDRSH    r7,[r0,#2]
;;;620    		f2=dct_io_ptr[2];
000348  f9b0c004          LDRSH    r12,[r0,#4]
;;;621    		f3=dct_io_ptr[3];
00034c  f9b08006          LDRSH    r8,[r0,#6]
;;;622    		f4=dct_io_ptr[4];
000350  f9b09008          LDRSH    r9,[r0,#8]
;;;623    		f5=dct_io_ptr[5];
000354  f9b0a00a          LDRSH    r10,[r0,#0xa]
000358  f8cda0a4          STR      r10,[sp,#0xa4]
;;;624    		f6=dct_io_ptr[6];
00035c  f9b0a00c          LDRSH    r10,[r0,#0xc]
000360  f8cda0a0          STR      r10,[sp,#0xa0]
;;;625    		f7=dct_io_ptr[7];
000364  f9b0a00e          LDRSH    r10,[r0,#0xe]
000368  f8cda09c          STR      r10,[sp,#0x9c]
;;;626    		g0=f0+f7;h2=f0-f7;
00036c  f8dda09c          LDR      r10,[sp,#0x9c]
000370  44b2              ADD      r10,r10,r6
000372  f8cda098          STR      r10,[sp,#0x98]
000376  f8dda09c          LDR      r10,[sp,#0x9c]
00037a  eba60a0a          SUB      r10,r6,r10
00037e  fa0ff38a          SXTH     r3,r10
;;;627    		g1=f1+f6;h3=f1-f6;
000382  f8dda0a0          LDR      r10,[sp,#0xa0]
000386  44ba              ADD      r10,r10,r7
000388  f8cda094          STR      r10,[sp,#0x94]
00038c  f8dda0a0          LDR      r10,[sp,#0xa0]
000390  eba70a0a          SUB      r10,r7,r10
000394  fa0ffa8a          SXTH     r10,r10
000398  f8cda064          STR      r10,[sp,#0x64]
;;;628    		h1=f2+f5;g3=f2-f5;
00039c  f8dda0a4          LDR      r10,[sp,#0xa4]
0003a0  44e2              ADD      r10,r10,r12
0003a2  f8cda08c          STR      r10,[sp,#0x8c]
0003a6  f8dda0a4          LDR      r10,[sp,#0xa4]
0003aa  ebac0a0a          SUB      r10,r12,r10
0003ae  fa0ffa8a          SXTH     r10,r10
0003b2  f8cda068          STR      r10,[sp,#0x68]
;;;629    		h0=f3+f4;g2=f3-f4;
0003b6  eb080a09          ADD      r10,r8,r9
0003ba  f8cda090          STR      r10,[sp,#0x90]
0003be  eba80a09          SUB      r10,r8,r9
0003c2  fa0ff28a          SXTH     r2,r10
;;;630    		p0=g0+h0;r0=g0-h0;
0003c6  f8ddb090          LDR      r11,[sp,#0x90]
0003ca  f8dda098          LDR      r10,[sp,#0x98]
0003ce  44da              ADD      r10,r10,r11
0003d0  f8cda088          STR      r10,[sp,#0x88]
0003d4  f8ddb090          LDR      r11,[sp,#0x90]
0003d8  f8dda098          LDR      r10,[sp,#0x98]
0003dc  ebaa0a0b          SUB      r10,r10,r11
0003e0  fa0ffa8a          SXTH     r10,r10
0003e4  f8cda080          STR      r10,[sp,#0x80]
;;;631    		p1=g1+h1;r1=g1-h1;
0003e8  f8ddb08c          LDR      r11,[sp,#0x8c]
0003ec  f8dda094          LDR      r10,[sp,#0x94]
0003f0  44da              ADD      r10,r10,r11
0003f2  f8cda084          STR      r10,[sp,#0x84]
0003f6  f8ddb08c          LDR      r11,[sp,#0x8c]
0003fa  f8dda094          LDR      r10,[sp,#0x94]
0003fe  ebaa0a0b          SUB      r10,r10,r11
000402  fa0ffa8a          SXTH     r10,r10
000406  f8cda07c          STR      r10,[sp,#0x7c]
;;;632    		q1=g2;s1=h2;
00040a  4614              MOV      r4,r2
00040c  461d              MOV      r5,r3
;;;633    		s0a=h3+g3;q0a=h3-g3;
00040e  e9ddab19          LDRD     r10,r11,[sp,#0x64]
000412  44da              ADD      r10,r10,r11
000414  fa0ffa8a          SXTH     r10,r10
000418  f8cda05c          STR      r10,[sp,#0x5c]
00041c  e9ddab19          LDRD     r10,r11,[sp,#0x64]
000420  ebaa0a0b          SUB      r10,r10,r11
000424  fa0ffa8a          SXTH     r10,r10
000428  f8cda060          STR      r10,[sp,#0x60]
;;;634    		q0=(q0a*c0+0x7FFF)>>16;
00042c  f24b5b05          MOV      r11,#0xb505
000430  f8dda060          LDR      r10,[sp,#0x60]
000434  fb0afa0b          MUL      r10,r10,r11
000438  f6477bff          MOV      r11,#0x7fff
00043c  44da              ADD      r10,r10,r11
00043e  ea4f4a2a          ASR      r10,r10,#16
000442  f8cda058          STR      r10,[sp,#0x58]
;;;635    		s0=(s0a*c0+0x7FFF)>>16;
000446  f24b5b05          MOV      r11,#0xb505
00044a  f8dda05c          LDR      r10,[sp,#0x5c]
00044e  fb0afa0b          MUL      r10,r10,r11
000452  f6477bff          MOV      r11,#0x7fff
000456  44da              ADD      r10,r10,r11
000458  ea4f4a2a          ASR      r10,r10,#16
00045c  f8cda054          STR      r10,[sp,#0x54]
;;;636    		P00=p0+p1;P11=p0-p1;
000460  e9ddba21          LDRD     r11,r10,[sp,#0x84]
000464  44da              ADD      r10,r10,r11
000466  f8cda078          STR      r10,[sp,#0x78]
00046a  e9ddba21          LDRD     r11,r10,[sp,#0x84]
00046e  ebaa0a0b          SUB      r10,r10,r11
000472  f8cda074          STR      r10,[sp,#0x74]
;;;637    		R11=c6*r1+c2*r0;R00=c6*r0-c2*r1;
000476  f2411b51          MOV      r11,#0x1151
00047a  f8dda07c          LDR      r10,[sp,#0x7c]
00047e  fb0afb0b          MUL      r11,r10,r11
000482  f6421ecf          MOV      lr,#0x29cf
000486  f8dda080          LDR      r10,[sp,#0x80]
00048a  fb0eba0a          MLA      r10,lr,r10,r11
00048e  f8cda06c          STR      r10,[sp,#0x6c]
000492  f2411b51          MOV      r11,#0x1151
000496  f8dda080          LDR      r10,[sp,#0x80]
00049a  fb0afb0b          MUL      r11,r10,r11
00049e  f8dda07c          LDR      r10,[sp,#0x7c]
0004a2  fb0eba1a          MLS      r10,lr,r10,r11
0004a6  f8cda070          STR      r10,[sp,#0x70]
;;;638    		Q1=q1+q0;Q0=q1-q0;
0004aa  4622              MOV      r2,r4
0004ac  f8dda058          LDR      r10,[sp,#0x58]
0004b0  44a2              ADD      r10,r10,r4
0004b2  fa0ffa8a          SXTH     r10,r10
0004b6  f8cda04c          STR      r10,[sp,#0x4c]
0004ba  f8dda058          LDR      r10,[sp,#0x58]
0004be  eba40a0a          SUB      r10,r4,r10
0004c2  fa0ffa8a          SXTH     r10,r10
0004c6  f8cda050          STR      r10,[sp,#0x50]
;;;639    		S1=s1+s0;S0=s1-s0;
0004ca  462b              MOV      r3,r5
0004cc  f8dda054          LDR      r10,[sp,#0x54]
0004d0  44aa              ADD      r10,r10,r5
0004d2  fa0ffa8a          SXTH     r10,r10
0004d6  f8cda044          STR      r10,[sp,#0x44]
0004da  f8dda054          LDR      r10,[sp,#0x54]
0004de  eba50a0a          SUB      r10,r5,r10
0004e2  fa0ffa8a          SXTH     r10,r10
0004e6  f8cda048          STR      r10,[sp,#0x48]
;;;640    		F0=P00;F4=P11;
0004ea  f8dda078          LDR      r10,[sp,#0x78]
0004ee  f8cda040          STR      r10,[sp,#0x40]
0004f2  f8dda074          LDR      r10,[sp,#0x74]
0004f6  f8cda030          STR      r10,[sp,#0x30]
;;;641    		F2=R11;F6=R00;
0004fa  f8dda06c          LDR      r10,[sp,#0x6c]
0004fe  f8cda038          STR      r10,[sp,#0x38]
000502  f8dda070          LDR      r10,[sp,#0x70]
000506  f8cda028          STR      r10,[sp,#0x28]
;;;642    		F1=c7*Q1+c1*S1;F7=c7*S1-c1*Q1;
00050a  f6400bd4          MOV      r11,#0x8d4
00050e  f8dda04c          LDR      r10,[sp,#0x4c]
000512  fb0afb0b          MUL      r11,r10,r11
000516  f6424e62          MOV      lr,#0x2c62
00051a  f8dda044          LDR      r10,[sp,#0x44]
00051e  fb0eba0a          MLA      r10,lr,r10,r11
000522  f8cda03c          STR      r10,[sp,#0x3c]
000526  f6400bd4          MOV      r11,#0x8d4
00052a  f8dda044          LDR      r10,[sp,#0x44]
00052e  fb0afb0b          MUL      r11,r10,r11
000532  f8dda04c          LDR      r10,[sp,#0x4c]
000536  fb0eba1a          MLS      r10,lr,r10,r11
00053a  f8cda024          STR      r10,[sp,#0x24]
;;;643    		F5=c3*Q0+c5*S0;F3=c3*S0-c5*Q0;
00053e  f2425ba0          MOV      r11,#0x25a0
000542  f8dda050          LDR      r10,[sp,#0x50]
000546  fb0afb0b          MUL      r11,r10,r11
00054a  f6411e24          MOV      lr,#0x1924
00054e  f8dda048          LDR      r10,[sp,#0x48]
000552  fb0eba0a          MLA      r10,lr,r10,r11
000556  f8cda02c          STR      r10,[sp,#0x2c]
00055a  f2425ba0          MOV      r11,#0x25a0
00055e  f8dda048          LDR      r10,[sp,#0x48]
000562  fb0afb0b          MUL      r11,r10,r11
000566  f8dda050          LDR      r10,[sp,#0x50]
00056a  fb0eba1a          MLS      r10,lr,r10,r11
00056e  f8cda034          STR      r10,[sp,#0x34]
;;;644    		F0r=(F0+0x0006)>>3;
000572  f8dda040          LDR      r10,[sp,#0x40]
000576  f10a0a06          ADD      r10,r10,#6
00057a  ea4f0aea          ASR      r10,r10,#3
00057e  f8cda020          STR      r10,[sp,#0x20]
;;;645    		F1r=(F1+0x7FFF)>>16;
000582  f6477bff          MOV      r11,#0x7fff
000586  f8dda03c          LDR      r10,[sp,#0x3c]
00058a  44da              ADD      r10,r10,r11
00058c  ea4f4a2a          ASR      r10,r10,#16
000590  f8cda01c          STR      r10,[sp,#0x1c]
;;;646    		F2r=(F2+0x7FFF)>>16;
000594  f8dda038          LDR      r10,[sp,#0x38]
000598  44da              ADD      r10,r10,r11
00059a  ea4f4a2a          ASR      r10,r10,#16
00059e  f8cda018          STR      r10,[sp,#0x18]
;;;647    		F3r=(F3+0x7FFF)>>16;
0005a2  f8dda034          LDR      r10,[sp,#0x34]
0005a6  44da              ADD      r10,r10,r11
0005a8  ea4f4a2a          ASR      r10,r10,#16
0005ac  f8cda014          STR      r10,[sp,#0x14]
;;;648    		F4r=(F4+0x0004)>>3;
0005b0  f8dda030          LDR      r10,[sp,#0x30]
0005b4  f10a0a04          ADD      r10,r10,#4
0005b8  ea4f0aea          ASR      r10,r10,#3
0005bc  f8cda010          STR      r10,[sp,#0x10]
;;;649    		F5r=(F5+0x7FFF)>>16;
0005c0  f8dda02c          LDR      r10,[sp,#0x2c]
0005c4  44da              ADD      r10,r10,r11
0005c6  ea4f4a2a          ASR      r10,r10,#16
0005ca  f8cda00c          STR      r10,[sp,#0xc]
;;;650    		F6r=(F6+0x7FFF)>>16;
0005ce  f8dda028          LDR      r10,[sp,#0x28]
0005d2  44da              ADD      r10,r10,r11
0005d4  ea4f4a2a          ASR      r10,r10,#16
0005d8  f8cda008          STR      r10,[sp,#8]
;;;651    		F7r=(F7+0x7FFF)>>16;
0005dc  f8dda024          LDR      r10,[sp,#0x24]
0005e0  44da              ADD      r10,r10,r11
0005e2  ea4f4a2a          ASR      r10,r10,#16
0005e6  f8cda004          STR      r10,[sp,#4]
;;;652    		dct_io_ptr[0]=F0r;
0005ea  f8dda020          LDR      r10,[sp,#0x20]
0005ee  fa0ffa8a          SXTH     r10,r10
0005f2  f8a0a000          STRH     r10,[r0,#0]
;;;653    		dct_io_ptr[1]=F1r;
0005f6  f8dda01c          LDR      r10,[sp,#0x1c]
0005fa  f8a0a002          STRH     r10,[r0,#2]
;;;654    		dct_io_ptr[2]=F2r;
0005fe  f8dda018          LDR      r10,[sp,#0x18]
000602  f8a0a004          STRH     r10,[r0,#4]
;;;655    		dct_io_ptr[3]=F3r;
000606  f8dda014          LDR      r10,[sp,#0x14]
00060a  f8a0a006          STRH     r10,[r0,#6]
;;;656    		dct_io_ptr[4]=F4r;
00060e  f8dda010          LDR      r10,[sp,#0x10]
000612  fa0ffa8a          SXTH     r10,r10
000616  f8a0a008          STRH     r10,[r0,#8]
;;;657    		dct_io_ptr[5]=F5r;
00061a  f8dda00c          LDR      r10,[sp,#0xc]
00061e  f8a0a00a          STRH     r10,[r0,#0xa]
;;;658    		dct_io_ptr[6]=F6r;
000622  f8dda008          LDR      r10,[sp,#8]
000626  f8a0a00c          STRH     r10,[r0,#0xc]
;;;659    		dct_io_ptr[7]=F7r;
00062a  f8dda004          LDR      r10,[sp,#4]
00062e  f8a0a00e          STRH     r10,[r0,#0xe]
;;;660    		dct_io_ptr+=8;
000632  3010              ADDS     r0,r0,#0x10
000634  1c49              ADDS     r1,r1,#1              ;616
                  |L3.1590|
000636  f8dda0c8          LDR      r10,[sp,#0xc8]        ;616
00063a  ea4f0aca          LSL      r10,r10,#3            ;616
00063e  458a              CMP      r10,r1                ;616
000640  f63fae7e          BHI      |L3.832|
;;;661    	}
;;;662    	for(i=0;i<64;i++)temp_dct1[i]=dct_data[i];
000644  2100              MOVS     r1,#0
000646  e008              B        |L3.1626|
                  |L3.1608|
000648  f8dda0c4          LDR      r10,[sp,#0xc4]
00064c  f93aa011          LDRSH    r10,[r10,r1,LSL #1]
000650  f8dfb010          LDR      r11,|L3.1636|
000654  f84ba021          STR      r10,[r11,r1,LSL #2]
000658  1c49              ADDS     r1,r1,#1
                  |L3.1626|
00065a  2940              CMP      r1,#0x40
00065c  d3f4              BCC      |L3.1608|
;;;663    	return;
;;;664    }
00065e  b033              ADD      sp,sp,#0xcc
000660  e8bd8ff0          POP      {r4-r11,pc}
;;;665    
                          ENDP

                  |L3.1636|
                          DCD      temp_dct1

                          AREA ||i.jhuff_encode_one_block||, CODE, READONLY, ALIGN=1

                  jhuff_encode_one_block PROC
;;;784    //huffman编码
;;;785    void jhuff_encode_one_block(jpeg_compress_info *cinfo,DCTBLOCK src,JHUFF_TBL *dc_tbl,JHUFF_TBL *ac_tbl) 
000000  e92d4fff          PUSH     {r0-r11,lr}
;;;786    {
000004  b081              SUB      sp,sp,#4
000006  460f              MOV      r7,r1
000008  4692              MOV      r10,r2
00000a  461c              MOV      r4,r3
;;;787      	int diff,ssss,rrrr,code;
;;;788      	int rs,k;  
;;;789      	//直流分量编码
;;;790      	diff=src[0];
00000c  f9b78000          LDRSH    r8,[r7,#0]
;;;791      	ssss=bit_num(diff);
000010  4640              MOV      r0,r8
000012  f7fffffe          BL       bit_num
000016  4681              MOV      r9,r0
;;;792      	jhuff_write_bits(cinfo,dc_tbl->ecode[ssss],dc_tbl->esize[ssss]);
000018  f50a7089          ADD      r0,r10,#0x112
00001c  f8302019          LDRH     r2,[r0,r9,LSL #1]
000020  f20a3012          ADD      r0,r10,#0x312
000024  f8301019          LDRH     r1,[r0,r9,LSL #1]
000028  9801              LDR      r0,[sp,#4]
00002a  f7fffffe          BL       jhuff_write_bits
;;;793      	if (diff<0)diff-=1;
00002e  f1b80f00          CMP      r8,#0
000032  da01              BGE      |L4.56|
000034  f1a80801          SUB      r8,r8,#1
                  |L4.56|
;;;794      	jhuff_write_bits(cinfo,diff,ssss);  
000038  464a              MOV      r2,r9
00003a  4641              MOV      r1,r8
00003c  9801              LDR      r0,[sp,#4]
00003e  f7fffffe          BL       jhuff_write_bits
;;;795      	//交流分量编码
;;;796      	rrrr=0;
000042  2500              MOVS     r5,#0
;;;797      	for(k=1;k<DCTSIZE2;k++)
000044  2601              MOVS     r6,#1
000046  e032              B        |L4.174|
                  |L4.72|
;;;798      	{
;;;799        	if(src[k]==0)
000048  f8370016          LDRH     r0,[r7,r6,LSL #1]
00004c  b908              CBNZ     r0,|L4.82|
;;;800    		{
;;;801          		rrrr++;
00004e  1c6d              ADDS     r5,r5,#1
;;;802          		continue;
000050  e02c              B        |L4.172|
                  |L4.82|
;;;803        	}
;;;804    		else
;;;805    		{
;;;806          		while(rrrr>15)//write EHUFSI(0xF0) bits of EHUFCO(0xF0)
000052  e007              B        |L4.100|
                  |L4.84|
;;;807    			{        		 
;;;808            		jhuff_write_bits(cinfo, ac_tbl->ecode[0xF0], ac_tbl->esize[0xF0]);
000054  f8b422f2          LDRH     r2,[r4,#0x2f2]
000058  f8b414f2          LDRH     r1,[r4,#0x4f2]
00005c  9801              LDR      r0,[sp,#4]
00005e  f7fffffe          BL       jhuff_write_bits
;;;809            		rrrr-=16;
000062  3d10              SUBS     r5,r5,#0x10
                  |L4.100|
000064  2d0f              CMP      r5,#0xf               ;806
000066  dcf5              BGT      |L4.84|
;;;810          		}
;;;811    			ssss=bit_num(src[k]);
000068  f9370016          LDRSH    r0,[r7,r6,LSL #1]
00006c  f7fffffe          BL       bit_num
000070  4681              MOV      r9,r0
;;;812    			rs=((rrrr<<4)|ssss);			
000072  ea491b05          ORR      r11,r9,r5,LSL #4
;;;813    			jhuff_write_bits(cinfo,ac_tbl->ecode[rs],ac_tbl->esize[rs]);//write EHUFSI(rs) bits of EHUFCO(rs)
000076  f5047089          ADD      r0,r4,#0x112
00007a  f830201b          LDRH     r2,[r0,r11,LSL #1]
00007e  f2043012          ADD      r0,r4,#0x312
000082  f830101b          LDRH     r1,[r0,r11,LSL #1]
000086  9801              LDR      r0,[sp,#4]
000088  f7fffffe          BL       jhuff_write_bits
;;;814    			code=src[k];
00008c  f9370016          LDRSH    r0,[r7,r6,LSL #1]
000090  9000              STR      r0,[sp,#0]
;;;815    			if(code<0)code-=1;			
000092  9800              LDR      r0,[sp,#0]
000094  2800              CMP      r0,#0
000096  da02              BGE      |L4.158|
000098  9800              LDR      r0,[sp,#0]
00009a  1e40              SUBS     r0,r0,#1
00009c  9000              STR      r0,[sp,#0]
                  |L4.158|
;;;816    			jhuff_write_bits(cinfo,code,ssss);//write ssss bits of rs
00009e  464a              MOV      r2,r9
0000a0  e9dd1000          LDRD     r1,r0,[sp,#0]
0000a4  f7fffffe          BL       jhuff_write_bits
;;;817    			rrrr=0;
0000a8  2500              MOVS     r5,#0
0000aa  bf00              NOP                            ;802
                  |L4.172|
0000ac  1c76              ADDS     r6,r6,#1              ;797
                  |L4.174|
0000ae  2e40              CMP      r6,#0x40              ;797
0000b0  dbca              BLT      |L4.72|
;;;818    		}
;;;819    	}
;;;820      	if(rrrr!=0)jhuff_write_bits(cinfo,ac_tbl->ecode[0x00],ac_tbl->esize[0x00]);//write EOB
0000b2  b135              CBZ      r5,|L4.194|
0000b4  f8b42112          LDRH     r2,[r4,#0x112]
0000b8  f8b41312          LDRH     r1,[r4,#0x312]
0000bc  9801              LDR      r0,[sp,#4]
0000be  f7fffffe          BL       jhuff_write_bits
                  |L4.194|
;;;821    }
0000c2  b005              ADD      sp,sp,#0x14
0000c4  e8bd8ff0          POP      {r4-r11,pc}
;;;822    //完成缓冲区中剩下数据的压缩编码,并写文件尾到输出文件
                          ENDP


                          AREA ||i.jhuff_flush_buffer||, CODE, READONLY, ALIGN=2

                  jhuff_flush_buffer PROC
;;;842    //清除/释放缓冲区
;;;843    void jhuff_flush_buffer(jpeg_compress_info *cinfo) 
000000  b570              PUSH     {r4-r6,lr}
;;;844    {
000002  4605              MOV      r5,r0
;;;845      	int i=3;  
000004  2403              MOVS     r4,#3
;;;846      	while(bits_in_buffer>8)
000006  e014              B        |L5.50|
                  |L5.8|
;;;847    	{
;;;848    		jutl_write_byte(buffer.c[i],cinfo->output,cinfo  );
000008  4a1d              LDR      r2,|L5.128|
00000a  5d10              LDRB     r0,[r2,r4]
00000c  462a              MOV      r2,r5
00000e  68a9              LDR      r1,[r5,#8]
000010  f7fffffe          BL       jutl_write_byte
;;;849    		if(buffer.c[i]==0xFF)jutl_write_byte(0x00,cinfo->output,cinfo  );		
000014  481a              LDR      r0,|L5.128|
000016  5d00              LDRB     r0,[r0,r4]
000018  28ff              CMP      r0,#0xff
00001a  d104              BNE      |L5.38|
00001c  462a              MOV      r2,r5
00001e  2000              MOVS     r0,#0
000020  68a9              LDR      r1,[r5,#8]
000022  f7fffffe          BL       jutl_write_byte
                  |L5.38|
;;;850    		i--;
000026  1e64              SUBS     r4,r4,#1
;;;851    		bits_in_buffer-=8;
000028  4816              LDR      r0,|L5.132|
00002a  6800              LDR      r0,[r0,#0]  ; bits_in_buffer
00002c  3808              SUBS     r0,r0,#8
00002e  4915              LDR      r1,|L5.132|
000030  6008              STR      r0,[r1,#0]  ; bits_in_buffer
                  |L5.50|
000032  4814              LDR      r0,|L5.132|
000034  6800              LDR      r0,[r0,#0]            ;846  ; bits_in_buffer
000036  2808              CMP      r0,#8                 ;846
000038  dce6              BGT      |L5.8|
;;;852    	}
;;;853    	if(bits_in_buffer>0)
00003a  4812              LDR      r0,|L5.132|
00003c  6800              LDR      r0,[r0,#0]  ; bits_in_buffer
00003e  2800              CMP      r0,#0
000040  dd17              BLE      |L5.114|
;;;854    	{
;;;855    		buffer.c[i]|=((u8)(0xFF)>>bits_in_buffer);
000042  480f              LDR      r0,|L5.128|
000044  5d00              LDRB     r0,[r0,r4]
000046  490f              LDR      r1,|L5.132|
000048  780a              LDRB     r2,[r1,#0]  ; bits_in_buffer
00004a  21ff              MOVS     r1,#0xff
00004c  4111              ASRS     r1,r1,r2
00004e  4308              ORRS     r0,r0,r1
000050  490b              LDR      r1,|L5.128|
000052  5508              STRB     r0,[r1,r4]
;;;856    		jutl_write_byte(buffer.c[i],cinfo->output,cinfo  );
000054  4a0a              LDR      r2,|L5.128|
000056  5d10              LDRB     r0,[r2,r4]
000058  462a              MOV      r2,r5
00005a  68a9              LDR      r1,[r5,#8]
00005c  f7fffffe          BL       jutl_write_byte
;;;857    		if(buffer.c[i]==0xFF)jutl_write_byte(0x00,cinfo->output,cinfo  );		
000060  4807              LDR      r0,|L5.128|
000062  5d00              LDRB     r0,[r0,r4]
000064  28ff              CMP      r0,#0xff
000066  d104              BNE      |L5.114|
000068  462a              MOV      r2,r5
00006a  2000              MOVS     r0,#0
00006c  68a9              LDR      r1,[r5,#8]
00006e  f7fffffe          BL       jutl_write_byte
                  |L5.114|
;;;858    	}
;;;859    	buffer.all=0;
000072  2000              MOVS     r0,#0
000074  4902              LDR      r1,|L5.128|
000076  6008              STR      r0,[r1,#0]  ; buffer
;;;860    	bits_in_buffer=0;
000078  4902              LDR      r1,|L5.132|
00007a  6008              STR      r0,[r1,#0]  ; bits_in_buffer
;;;861    }
00007c  bd70              POP      {r4-r6,pc}
;;;862    
                          ENDP

00007e  0000              DCW      0x0000
                  |L5.128|
                          DCD      buffer
                  |L5.132|
                          DCD      bits_in_buffer

                          AREA ||i.jhuff_write_bits||, CODE, READONLY, ALIGN=2

                  jhuff_write_bits PROC
;;;871    //写比特
;;;872    void jhuff_write_bits(jpeg_compress_info *cinfo,u32 data,int len) 
000000  e92d41f0          PUSH     {r4-r8,lr}
;;;873    {
000004  4604              MOV      r4,r0
000006  460f              MOV      r7,r1
000008  4615              MOV      r5,r2
;;;874      	u32 tdata; 
;;;875    	while(len>0)
00000a  e035              B        |L6.120|
                  |L6.12|
;;;876    	{
;;;877    		tdata=(data<<(32-len));
00000c  f1c50020          RSB      r0,r5,#0x20
000010  fa07f800          LSL      r8,r7,r0
;;;878    		buffer.all|=((tdata>>bits_in_buffer));
000014  481a              LDR      r0,|L6.128|
000016  6800              LDR      r0,[r0,#0]  ; buffer
000018  491a              LDR      r1,|L6.132|
00001a  7809              LDRB     r1,[r1,#0]  ; bits_in_buffer
00001c  fa28f101          LSR      r1,r8,r1
000020  4308              ORRS     r0,r0,r1
000022  4917              LDR      r1,|L6.128|
000024  6008              STR      r0,[r1,#0]  ; buffer
;;;879    		bits_in_buffer+=len;		
000026  4817              LDR      r0,|L6.132|
000028  6800              LDR      r0,[r0,#0]  ; bits_in_buffer
00002a  4428              ADD      r0,r0,r5
00002c  4915              LDR      r1,|L6.132|
00002e  6008              STR      r0,[r1,#0]  ; bits_in_buffer
;;;880    		if(bits_in_buffer>=32)//输出缓冲
000030  4608              MOV      r0,r1
000032  6800              LDR      r0,[r0,#0]  ; bits_in_buffer
000034  2820              CMP      r0,#0x20
000036  db1e              BLT      |L6.118|
;;;881    		{
;;;882    			int i;			
;;;883    			for(i=3;i>=0;i--)//必需为大端模式
000038  2603              MOVS     r6,#3
00003a  e00f              B        |L6.92|
                  |L6.60|
;;;884    			{
;;;885    				jutl_write_byte(buffer.c[i],cinfo->output,cinfo  );
00003c  4a10              LDR      r2,|L6.128|
00003e  5d90              LDRB     r0,[r2,r6]
000040  4622              MOV      r2,r4
000042  68a1              LDR      r1,[r4,#8]
000044  f7fffffe          BL       jutl_write_byte
;;;886    				if(buffer.c[i]==0xFF)
000048  480d              LDR      r0,|L6.128|
00004a  5d80              LDRB     r0,[r0,r6]
00004c  28ff              CMP      r0,#0xff
00004e  d104              BNE      |L6.90|
;;;887    				jutl_write_byte(0x00,cinfo->output,cinfo  );
000050  4622              MOV      r2,r4
000052  2000              MOVS     r0,#0
000054  68a1              LDR      r1,[r4,#8]
000056  f7fffffe          BL       jutl_write_byte
                  |L6.90|
00005a  1e76              SUBS     r6,r6,#1              ;883
                  |L6.92|
00005c  2e00              CMP      r6,#0                 ;883
00005e  daed              BGE      |L6.60|
;;;888    			}
;;;889    			buffer.all=0;
000060  2000              MOVS     r0,#0
000062  4907              LDR      r1,|L6.128|
000064  6008              STR      r0,[r1,#0]  ; buffer
;;;890    			len=bits_in_buffer-32;
000066  4807              LDR      r0,|L6.132|
000068  6800              LDR      r0,[r0,#0]  ; bits_in_buffer
00006a  f1a00520          SUB      r5,r0,#0x20
;;;891    			bits_in_buffer=0;
00006e  2000              MOVS     r0,#0
000070  4904              LDR      r1,|L6.132|
000072  6008              STR      r0,[r1,#0]  ; bits_in_buffer
;;;892    		}
000074  e000              B        |L6.120|
                  |L6.118|
;;;893    		else len=0;
000076  2500              MOVS     r5,#0
                  |L6.120|
000078  2d00              CMP      r5,#0                 ;875
00007a  dcc7              BGT      |L6.12|
;;;894    	}
;;;895    }
00007c  e8bd81f0          POP      {r4-r8,pc}
;;;896    
                          ENDP

                  |L6.128|
                          DCD      buffer
                  |L6.132|
                          DCD      bits_in_buffer

                          AREA ||i.jint_add_huff_table||, CODE, READONLY, ALIGN=2

                  jint_add_huff_table PROC
;;;176    //添加huffman表
;;;177    void jint_add_huff_table(jpeg_compress_info *cinfo,u16 which_tbl,int what_tbl,const u8 *bits,const u8 *value) 
000000  e92d5ff0          PUSH     {r4-r12,lr}
;;;178    {
000004  4681              MOV      r9,r0
000006  460c              MOV      r4,r1
000008  4616              MOV      r6,r2
00000a  469a              MOV      r10,r3
00000c  f8ddb028          LDR      r11,[sp,#0x28]
;;;179      	JHUFF_TBL **hpp;
;;;180      	int nsymbols,len; 
;;;181      	if(which_tbl>NUM_HUFF_TBLS)return;
000010  2c02              CMP      r4,#2
000012  dd01              BLE      |L7.24|
                  |L7.20|
;;;182      	if(what_tbl==0)//直流分量表
;;;183        hpp=cinfo->dc_huff_table;
;;;184      	else if(what_tbl==1)hpp=cinfo->ac_huff_table;//交流分量表
;;;185      	else return ;
;;;186    	hpp[which_tbl]=&JHUFF_TBL_4[which_tbl*2+what_tbl];
;;;187    	memcpy(hpp[which_tbl]->bits,bits,sizeof(hpp[which_tbl]->bits));	  
;;;188      	nsymbols=0;//计算huffval中标志的数量
;;;189    	for(len=1;len<=16;len++)nsymbols+=bits[len];
;;;190      	memcpy(hpp[which_tbl]->huffval,value,nsymbols*sizeof(u8));//set huffval  
;;;191      	//计算并设置huffman表&表长
;;;192      	memset(hpp[which_tbl]->ecode,0,sizeof(hpp[which_tbl]->ecode));
;;;193      	memset(hpp[which_tbl]->esize,0,sizeof(hpp[which_tbl]->esize));
;;;194      	jint_calc_huff_tbl(hpp[which_tbl]);
;;;195    }
000014  e8bd9ff0          POP      {r4-r12,pc}
                  |L7.24|
000018  b916              CBNZ     r6,|L7.32|
00001a  f10905cc          ADD      r5,r9,#0xcc           ;183
00001e  e005              B        |L7.44|
                  |L7.32|
000020  2e01              CMP      r6,#1                 ;184
000022  d102              BNE      |L7.42|
000024  f10905d4          ADD      r5,r9,#0xd4           ;184
000028  e000              B        |L7.44|
                  |L7.42|
00002a  e7f3              B        |L7.20|
                  |L7.44|
00002c  eb060044          ADD      r0,r6,r4,LSL #1       ;186
000030  f2402189          MOV      r1,#0x289             ;186
000034  4348              MULS     r0,r1,r0              ;186
000036  491a              LDR      r1,|L7.160|
000038  eb010040          ADD      r0,r1,r0,LSL #1       ;186
00003c  f8450024          STR      r0,[r5,r4,LSL #2]     ;186
000040  f8550024          LDR      r0,[r5,r4,LSL #2]     ;187
000044  2211              MOVS     r2,#0x11              ;187
000046  4651              MOV      r1,r10                ;187
000048  f7fffffe          BL       __aeabi_memcpy
00004c  2700              MOVS     r7,#0                 ;188
00004e  f04f0801          MOV      r8,#1                 ;189
000052  e004              B        |L7.94|
                  |L7.84|
000054  f81a0008          LDRB     r0,[r10,r8]           ;189
000058  4407              ADD      r7,r7,r0              ;189
00005a  f1080801          ADD      r8,r8,#1              ;189
                  |L7.94|
00005e  f1b80f10          CMP      r8,#0x10              ;189
000062  ddf7              BLE      |L7.84|
000064  463a              MOV      r2,r7                 ;190
000066  f8551024          LDR      r1,[r5,r4,LSL #2]     ;190
00006a  f1010011          ADD      r0,r1,#0x11           ;190
00006e  4659              MOV      r1,r11                ;190
000070  f7fffffe          BL       __aeabi_memcpy
000074  f8551024          LDR      r1,[r5,r4,LSL #2]     ;192
000078  f2013012          ADD      r0,r1,#0x312          ;192
00007c  f44f7100          MOV      r1,#0x200             ;192
000080  f7fffffe          BL       __aeabi_memclr
000084  f8551024          LDR      r1,[r5,r4,LSL #2]     ;193
000088  f5017089          ADD      r0,r1,#0x112          ;193
00008c  f44f7100          MOV      r1,#0x200             ;193
000090  f7fffffe          BL       __aeabi_memclr
000094  f8550024          LDR      r0,[r5,r4,LSL #2]     ;194
000098  f7fffffe          BL       jint_calc_huff_tbl
00009c  bf00              NOP      
00009e  e7b9              B        |L7.20|
;;;196    //生成huffman表
                          ENDP

                  |L7.160|
                          DCD      JHUFF_TBL_4

                          AREA ||i.jint_add_quant_table||, CODE, READONLY, ALIGN=2

                  jint_add_quant_table PROC
;;;149    //添加量化表
;;;150    void jint_add_quant_table(jpeg_compress_info *cinfo,u16 which_tbl,const u16 *base_tbl,float quality) 
000000  e92d5fff          PUSH     {r0-r12,lr}
;;;151    {
000004  4606              MOV      r6,r0
000006  460c              MOV      r4,r1
000008  4691              MOV      r9,r2
00000a  469a              MOV      r10,r3
;;;152      	int i;
;;;153      	DCTVAL *qtblptr;
;;;154      	cinfo->quant_table[which_tbl]=&JQUANT_TBL_2[which_tbl];
00000c  4814              LDR      r0,|L8.96|
00000e  eb0011c4          ADD      r1,r0,r4,LSL #7
000012  f10600dc          ADD      r0,r6,#0xdc
000016  f8401024          STR      r1,[r0,r4,LSL #2]
;;;155      	qtblptr=cinfo->quant_table[which_tbl]->quantval;
00001a  f850b024          LDR      r11,[r0,r4,LSL #2]
;;;156      	for(i=0;i<DCTSIZE2;i++)qtblptr[i]=(short)(base_tbl[i]*quality+0.5);
00001e  2500              MOVS     r5,#0
000020  e017              B        |L8.82|
                  |L8.34|
000022  f8390015          LDRH     r0,[r9,r5,LSL #1]
000026  f7fffffe          BL       __aeabi_ui2f
00002a  4651              MOV      r1,r10
00002c  9000              STR      r0,[sp,#0]
00002e  f7fffffe          BL       __aeabi_fmul
000032  9001              STR      r0,[sp,#4]
000034  f7fffffe          BL       __aeabi_f2d
000038  4607              MOV      r7,r0
00003a  2200              MOVS     r2,#0
00003c  4b09              LDR      r3,|L8.100|
00003e  f7fffffe          BL       __aeabi_dadd
000042  e9cd0102          STRD     r0,r1,[sp,#8]
000046  f7fffffe          BL       __aeabi_d2iz
00004a  b200              SXTH     r0,r0
00004c  f82b0015          STRH     r0,[r11,r5,LSL #1]
000050  1c6d              ADDS     r5,r5,#1
                  |L8.82|
000052  2d40              CMP      r5,#0x40
000054  dbe5              BLT      |L8.34|
;;;157      	jutl_zigzag_sort(qtblptr);
000056  4658              MOV      r0,r11
000058  f7fffffe          BL       jutl_zigzag_sort
;;;158    }
00005c  e8bd9fff          POP      {r0-r12,pc}
;;;159    //Z形排序
                          ENDP

                  |L8.96|
                          DCD      JQUANT_TBL_2
                  |L8.100|
                          DCD      0x3fe00000

                          AREA ||i.jint_calc_huff_tbl||, CODE, READONLY, ALIGN=2

                  jint_calc_huff_tbl PROC
;;;198    static u16 gtmp_hcode[256];
;;;199    void jint_calc_huff_tbl(JHUFF_TBL *htblptr)
000000  b5f0              PUSH     {r4-r7,lr}
;;;200    {
000002  4602              MOV      r2,r0
;;;201      	int i,j,k,lastk,code,si;    	
;;;202      	k=0;//生成EHUFFSI表
000004  2000              MOVS     r0,#0
;;;203      	for(i=1;i<=16;i++)
000006  2101              MOVS     r1,#1
000008  e00b              B        |L9.34|
                  |L9.10|
;;;204    	{
;;;205        	for (j=1; j<=htblptr->bits[i];j++)
00000a  2601              MOVS     r6,#1
00000c  e005              B        |L9.26|
                  |L9.14|
;;;206    		{
;;;207          		gtmp_hsize[k]=i;
00000e  f8dfc09c          LDR      r12,|L9.172|
000012  f82c1010          STRH     r1,[r12,r0,LSL #1]
;;;208          		k++;
000016  1c40              ADDS     r0,r0,#1
000018  1c76              ADDS     r6,r6,#1              ;205
                  |L9.26|
00001a  5c57              LDRB     r7,[r2,r1]            ;205
00001c  42b7              CMP      r7,r6                 ;205
00001e  daf6              BGE      |L9.14|
000020  1c49              ADDS     r1,r1,#1              ;203
                  |L9.34|
000022  2910              CMP      r1,#0x10              ;203
000024  ddf1              BLE      |L9.10|
;;;209        	}
;;;210      	}
;;;211      	gtmp_hsize[k]=0;
000026  2700              MOVS     r7,#0
000028  f8dfc080          LDR      r12,|L9.172|
00002c  f82c7010          STRH     r7,[r12,r0,LSL #1]
;;;212      	lastk=k;    	
000030  4605              MOV      r5,r0
;;;213      	k=0;//生成EHUFFCO表
000032  2000              MOVS     r0,#0
;;;214      	code=0;
000034  2300              MOVS     r3,#0
;;;215      	si=gtmp_hsize[0];
000036  4667              MOV      r7,r12
000038  883c              LDRH     r4,[r7,#0]  ; gtmp_hsize
;;;216      	while(1)
00003a  e01e              B        |L9.122|
                  |L9.60|
;;;217    	{
;;;218        	while(1)
00003c  e00b              B        |L9.86|
                  |L9.62|
;;;219    		{
;;;220          		gtmp_hcode[k]=code;
00003e  f8dfc070          LDR      r12,|L9.176|
000042  f82c3010          STRH     r3,[r12,r0,LSL #1]
;;;221          		code++;
000046  1c5b              ADDS     r3,r3,#1
;;;222          		k++;
000048  1c40              ADDS     r0,r0,#1
;;;223          		if(gtmp_hsize[k]!=si)
00004a  4f18              LDR      r7,|L9.172|
00004c  f8377010          LDRH     r7,[r7,r0,LSL #1]
000050  42a7              CMP      r7,r4
000052  d000              BEQ      |L9.86|
;;;224            	break;
000054  e000              B        |L9.88|
                  |L9.86|
000056  e7f2              B        |L9.62|
                  |L9.88|
000058  bf00              NOP      
;;;225        	}
;;;226        	if(gtmp_hsize[k]==0)
00005a  4f14              LDR      r7,|L9.172|
00005c  f8377010          LDRH     r7,[r7,r0,LSL #1]
000060  b907              CBNZ     r7,|L9.100|
;;;227          	break;
000062  e00b              B        |L9.124|
                  |L9.100|
;;;228        	while(1)
000064  e007              B        |L9.118|
                  |L9.102|
;;;229    		{
;;;230          		code=code<<1;
000066  005b              LSLS     r3,r3,#1
;;;231          		si++;
000068  1c64              ADDS     r4,r4,#1
;;;232          		if(gtmp_hsize[k]==si)
00006a  4f10              LDR      r7,|L9.172|
00006c  f8377010          LDRH     r7,[r7,r0,LSL #1]
000070  42a7              CMP      r7,r4
000072  d100              BNE      |L9.118|
;;;233            	break;
000074  e000              B        |L9.120|
                  |L9.118|
000076  e7f6              B        |L9.102|
                  |L9.120|
000078  bf00              NOP      
                  |L9.122|
00007a  e7df              B        |L9.60|
                  |L9.124|
00007c  bf00              NOP                            ;227
;;;234        	}
;;;235      	}
;;;236       	k=0;//指令代码
00007e  2000              MOVS     r0,#0
;;;237      	do{
000080  bf00              NOP      
                  |L9.130|
;;;238        	i=htblptr->huffval[k];
000082  f1020711          ADD      r7,r2,#0x11
000086  5c39              LDRB     r1,[r7,r0]
;;;239        	htblptr->ecode[i]=gtmp_hcode[k];
000088  4f09              LDR      r7,|L9.176|
00008a  f837c010          LDRH     r12,[r7,r0,LSL #1]
00008e  f2023712          ADD      r7,r2,#0x312
000092  f827c011          STRH     r12,[r7,r1,LSL #1]
;;;240        	htblptr->esize[i]=gtmp_hsize[k];
000096  4f05              LDR      r7,|L9.172|
000098  f837c010          LDRH     r12,[r7,r0,LSL #1]
00009c  f5027789          ADD      r7,r2,#0x112
0000a0  f827c011          STRH     r12,[r7,r1,LSL #1]
;;;241        	k++;
0000a4  1c40              ADDS     r0,r0,#1
;;;242      	}while(k<lastk);
0000a6  42a8              CMP      r0,r5
0000a8  dbeb              BLT      |L9.130|
;;;243    }
0000aa  bdf0              POP      {r4-r7,pc}
;;;244    //计算出一些有用的值并分配到缓冲区中
                          ENDP

                  |L9.172|
                          DCD      gtmp_hsize
                  |L9.176|
                          DCD      gtmp_hcode

                          AREA ||i.jint_process_mcu||, CODE, READONLY, ALIGN=2

                  jint_process_mcu PROC
;;;520    extern volatile int temp_dct1[64];
;;;521    void jint_process_mcu(jpeg_compress_info *cinfo) 
000000  e92d4ff0          PUSH     {r4-r11,lr}
;;;522    {
000004  b08b              SUB      sp,sp,#0x2c
000006  4605              MOV      r5,r0
;;;523      //处理每个颜色元件
;;;524      	int cn,tn;
;;;525      	for(cn=0;cn<cinfo->num_comp;cn++) 
000008  f04f0900          MOV      r9,#0
00000c  e097              B        |L10.318|
                  |L10.14|
;;;526      	{
;;;527        //元件中使用到的变量
;;;528        	DCTBLOCK   *dct_table=cinfo->comp[cn].dct_table;
00000e  eb0901c9          ADD      r1,r9,r9,LSL #3
000012  f105001c          ADD      r0,r5,#0x1c
000016  eb000081          ADD      r0,r0,r1,LSL #2
00001a  69c0              LDR      r0,[r0,#0x1c]
00001c  9009              STR      r0,[sp,#0x24]
;;;529        	JQUANT_TBL *quant_table=cinfo->quant_table[cinfo->comp[cn].quant_tbl_no];
00001e  eb0901c9          ADD      r1,r9,r9,LSL #3
000022  f105001c          ADD      r0,r5,#0x1c
000026  eb000081          ADD      r0,r0,r1,LSL #2
00002a  68c1              LDR      r1,[r0,#0xc]
00002c  f10500dc          ADD      r0,r5,#0xdc
000030  f850b021          LDR      r11,[r0,r1,LSL #2]
;;;530        	JHUFF_TBL  *dc_table=cinfo->dc_huff_table[cinfo->comp[cn].dc_tbl_no];
000034  eb0901c9          ADD      r1,r9,r9,LSL #3
000038  38c0              SUBS     r0,r0,#0xc0
00003a  eb000081          ADD      r0,r0,r1,LSL #2
00003e  6901              LDR      r1,[r0,#0x10]
000040  f10500cc          ADD      r0,r5,#0xcc
000044  f8500021          LDR      r0,[r0,r1,LSL #2]
000048  9008              STR      r0,[sp,#0x20]
;;;531        	JHUFF_TBL  *ac_table=cinfo->ac_huff_table[cinfo->comp[cn].ac_tbl_no];    
00004a  eb0901c9          ADD      r1,r9,r9,LSL #3
00004e  f105001c          ADD      r0,r5,#0x1c
000052  eb000081          ADD      r0,r0,r1,LSL #2
000056  6941              LDR      r1,[r0,#0x14]
000058  f10500d4          ADD      r0,r5,#0xd4
00005c  f8500021          LDR      r0,[r0,r1,LSL #2]
000060  9007              STR      r0,[sp,#0x1c]
;;;532        	//处理每个DCT表--'Block'    
;;;533        	for(tn=0;tn<cinfo->comp[cn].num_dct_table;tn++) 
000062  f04f0a00          MOV      r10,#0
000066  e05f              B        |L10.296|
                  |L10.104|
;;;534        	{
;;;535          		DCTVAL tmp=0;
000068  2000              MOVS     r0,#0
00006a  9006              STR      r0,[sp,#0x18]
;;;536          		DCTVAL *val=dct_table[tn];
00006c  9809              LDR      r0,[sp,#0x24]
00006e  eb0016ca          ADD      r6,r0,r10,LSL #7
;;;537          		int i;         		
;;;538          		for(i=0;i<DCTSIZE2;i++)val[i]-=128;//Forward-DCT的数据偏移       	      
000072  2400              MOVS     r4,#0
000074  e006              B        |L10.132|
                  |L10.118|
000076  f8360014          LDRH     r0,[r6,r4,LSL #1]
00007a  3880              SUBS     r0,r0,#0x80
00007c  b200              SXTH     r0,r0
00007e  f8260014          STRH     r0,[r6,r4,LSL #1]
000082  1c64              ADDS     r4,r4,#1
                  |L10.132|
000084  2c40              CMP      r4,#0x40
000086  dbf6              BLT      |L10.118|
;;;539          		for(i=0;i<64;i++)temp_dct1[i]=val[i];//Forward-DCT计算     
000088  2400              MOVS     r4,#0
00008a  e005              B        |L10.152|
                  |L10.140|
00008c  f9360014          LDRSH    r0,[r6,r4,LSL #1]
000090  492e              LDR      r1,|L10.332|
000092  f8410024          STR      r0,[r1,r4,LSL #2]
000096  1c64              ADDS     r4,r4,#1
                  |L10.152|
000098  2c40              CMP      r4,#0x40
00009a  dbf7              BLT      |L10.140|
;;;540          		dsp_fdct_8x8((short *)val,1);     		
00009c  2101              MOVS     r1,#1
00009e  4630              MOV      r0,r6
0000a0  f7fffffe          BL       dsp_fdct_8x8
;;;541          		jutl_zigzag_sort((short*)val);//Z变换
0000a4  4630              MOV      r0,r6
0000a6  f7fffffe          BL       jutl_zigzag_sort
;;;542          		//量化表 
;;;543          		for(i=0;i<DCTSIZE2;i++)val[i]=(DCTVAL)((float)val[i]/(float)quant_table->quantval[i]+0.5);     
0000aa  2400              MOVS     r4,#0
0000ac  e01c              B        |L10.232|
                  |L10.174|
0000ae  f93b0014          LDRSH    r0,[r11,r4,LSL #1]
0000b2  f7fffffe          BL       __aeabi_i2f
0000b6  9002              STR      r0,[sp,#8]
0000b8  f9360014          LDRSH    r0,[r6,r4,LSL #1]
0000bc  f7fffffe          BL       __aeabi_i2f
0000c0  9001              STR      r0,[sp,#4]
0000c2  9902              LDR      r1,[sp,#8]
0000c4  f7fffffe          BL       __aeabi_fdiv
0000c8  9003              STR      r0,[sp,#0xc]
0000ca  f7fffffe          BL       __aeabi_f2d
0000ce  2200              MOVS     r2,#0
0000d0  4b1f              LDR      r3,|L10.336|
0000d2  e9cd0104          STRD     r0,r1,[sp,#0x10]
0000d6  f7fffffe          BL       __aeabi_dadd
0000da  4607              MOV      r7,r0
0000dc  f7fffffe          BL       __aeabi_d2iz
0000e0  b200              SXTH     r0,r0
0000e2  f8260014          STRH     r0,[r6,r4,LSL #1]
0000e6  1c64              ADDS     r4,r4,#1
                  |L10.232|
0000e8  2c40              CMP      r4,#0x40
0000ea  dbe0              BLT      |L10.174|
;;;544          		//不同编码的计算
;;;545          		tmp=val[0];
0000ec  f9b60000          LDRSH    r0,[r6,#0]
0000f0  9006              STR      r0,[sp,#0x18]
;;;546          		val[0]-=cinfo->comp[cn].preval;
0000f2  8831              LDRH     r1,[r6,#0]
0000f4  eb0902c9          ADD      r2,r9,r9,LSL #3
0000f8  f105001c          ADD      r0,r5,#0x1c
0000fc  eb000082          ADD      r0,r0,r2,LSL #2
000100  8c00              LDRH     r0,[r0,#0x20]
000102  1a08              SUBS     r0,r1,r0
000104  b200              SXTH     r0,r0
000106  8030              STRH     r0,[r6,#0]
;;;547          		cinfo->comp[cn].preval=tmp;           		
000108  eb0902c9          ADD      r2,r9,r9,LSL #3
00010c  f105011c          ADD      r1,r5,#0x1c
000110  eb010182          ADD      r1,r1,r2,LSL #2
000114  9806              LDR      r0,[sp,#0x18]
000116  8408              STRH     r0,[r1,#0x20]
;;;548          		jhuff_encode_one_block(cinfo, val, dc_table, ac_table);//Huffman
000118  4631              MOV      r1,r6
00011a  4628              MOV      r0,r5
00011c  e9dd3207          LDRD     r3,r2,[sp,#0x1c]
000120  f7fffffe          BL       jhuff_encode_one_block
000124  f10a0a01          ADD      r10,r10,#1            ;533
                  |L10.296|
000128  eb0901c9          ADD      r1,r9,r9,LSL #3       ;533
00012c  f105001c          ADD      r0,r5,#0x1c           ;533
000130  eb000081          ADD      r0,r0,r1,LSL #2       ;533
000134  6980              LDR      r0,[r0,#0x18]         ;533
000136  4550              CMP      r0,r10                ;533
000138  dc96              BGT      |L10.104|
00013a  f1090901          ADD      r9,r9,#1              ;525
                  |L10.318|
00013e  69a8              LDR      r0,[r5,#0x18]         ;525
000140  4548              CMP      r0,r9                 ;525
000142  f73faf64          BGT      |L10.14|
;;;549        	}
;;;550      	}
;;;551    }
000146  b00b              ADD      sp,sp,#0x2c
000148  e8bd8ff0          POP      {r4-r11,pc}
;;;552    //快速离散余弦变换
                          ENDP

                  |L10.332|
                          DCD      temp_dct1
                  |L10.336|
                          DCD      0x3fe00000

                          AREA ||i.jint_process_rows||, CODE, READONLY, ALIGN=1

                  jint_process_rows PROC
;;;457    //cinfo->inbuf填满有效数据 ,否则将不能得到正确的压缩数据
;;;458    void jint_process_rows(jpeg_compress_info *cinfo) 
000000  e92d5ffc          PUSH     {r2-r12,lr}
;;;459    {  
000004  4604              MOV      r4,r0
;;;460      	int mn; //当前缓冲里的MCU
;;;461      	JSAMPLE *mcu_start;  
;;;462    	int mcu_delta; 
;;;463      	JSAMPLE *pdata; 
;;;464    	//颜色转换选择调用(这里只做RGB到YCrCb的转换)
;;;465    	if(cinfo->in_color_space==JCS_RGB)
000006  7d20              LDRB     r0,[r4,#0x14]
000008  2802              CMP      r0,#2
00000a  d108              BNE      |L11.30|
;;;466    	jutl_cc_rgb2ycc(cinfo->inbuf,cinfo->inbuf_width*cinfo->inbuf_height);	
00000c  34ec              ADDS     r4,r4,#0xec
00000e  e9d42301          LDRD     r2,r3,[r4,#4]
000012  fb02f103          MUL      r1,r2,r3
000016  f85409ec          LDR      r0,[r4],#-0xec
00001a  f7fffffe          BL       jutl_cc_rgb2ycc
                  |L11.30|
;;;467    	//处理每个MCU数据,分割inbuf的数据到每个元件的dct表中,并降低每个元件的采样率
;;;468    	mcu_start=&cinfo->inbuf[0];
00001e  f8d470ec          LDR      r7,[r4,#0xec]
;;;469    	mcu_delta=cinfo->mcu_width*cinfo->num_comp*sizeof(JSAMPLE);
000022  69a1              LDR      r1,[r4,#0x18]
000024  f8d400b8          LDR      r0,[r4,#0xb8]
000028  fb00f801          MUL      r8,r0,r1
;;;470    	for(mn=0;mn<cinfo->mcu_per_row;mn++)
00002c  2600              MOVS     r6,#0
00002e  e080              B        |L11.306|
                  |L11.48|
;;;471    	{
;;;472    		//对于每个元件,降低采样率并保存到各个元件中
;;;473    		int cn;//元件计数器
;;;474    		for(cn=0;cn<cinfo->num_comp;cn++)
000030  2500              MOVS     r5,#0
000032  e076              B        |L11.290|
                  |L11.52|
;;;475    		{
;;;476    			JSAMPLE *comp_start=(JSAMPLE*)(mcu_start+cn);
000034  197a              ADDS     r2,r7,r5
000036  9201              STR      r2,[sp,#4]
;;;477    			//初始化采样间隔(sampledelta)数据指针
;;;478    			int h_samp_delta=cinfo->max_h_factor/cinfo->comp[cn].h_factor*cinfo->num_comp*sizeof(JSAMPLE);
000038  eb050bc5          ADD      r11,r5,r5,LSL #3
00003c  f104021c          ADD      r2,r4,#0x1c
000040  eb02028b          ADD      r2,r2,r11,LSL #2
000044  f8d4a0c4          LDR      r10,[r4,#0xc4]
000048  6852              LDR      r2,[r2,#4]
00004a  fb9af2f2          SDIV     r2,r10,r2
00004e  f8d4a018          LDR      r10,[r4,#0x18]
000052  fb02f30a          MUL      r3,r2,r10
;;;479    			int v_samp_delta=cinfo->max_v_factor/cinfo->comp[cn].v_factor*cinfo->num_comp*sizeof(JSAMPLE)*cinfo->inbuf_width;			
000056  eb050bc5          ADD      r11,r5,r5,LSL #3
00005a  f104021c          ADD      r2,r4,#0x1c
00005e  eb02028b          ADD      r2,r2,r11,LSL #2
000062  f8d4a0c8          LDR      r10,[r4,#0xc8]
000066  6892              LDR      r2,[r2,#8]
000068  fb9af2f2          SDIV     r2,r10,r2
00006c  f8d4a018          LDR      r10,[r4,#0x18]
000070  fb02f20a          MUL      r2,r2,r10
000074  f8d4a0f0          LDR      r10,[r4,#0xf0]
000078  fb02fc0a          MUL      r12,r2,r10
;;;480    			//对于每个块(block)
;;;481    			int bn;//块计数器
;;;482    			int pn;//数据指针
;;;483    			for(bn=0;bn<cinfo->comp[cn].num_dct_table;bn++)
00007c  2100              MOVS     r1,#0
00007e  e046              B        |L11.270|
                  |L11.128|
;;;484    			{
;;;485    				//初始化块开始地址
;;;486    				JSAMPLE *block_start=(JSAMPLE*)(comp_start+(bn%cinfo->comp[cn].h_factor)*DCTSIZE*h_samp_delta+(bn/cinfo->comp[cn].v_factor)*DCTSIZE*v_samp_delta);				
000080  eb050bc5          ADD      r11,r5,r5,LSL #3
000084  f104021c          ADD      r2,r4,#0x1c
000088  eb02028b          ADD      r2,r2,r11,LSL #2
00008c  6852              LDR      r2,[r2,#4]
00008e  fb91fbf2          SDIV     r11,r1,r2
000092  fb02121b          MLS      r2,r2,r11,r1
000096  ea4f0bc2          LSL      r11,r2,#3
00009a  9a01              LDR      r2,[sp,#4]
00009c  fb0b2203          MLA      r2,r11,r3,r2
0000a0  eb050bc5          ADD      r11,r5,r5,LSL #3
0000a4  f1040e1c          ADD      lr,r4,#0x1c
0000a8  eb0e0b8b          ADD      r11,lr,r11,LSL #2
0000ac  f8dbb008          LDR      r11,[r11,#8]
0000b0  fb91fbfb          SDIV     r11,r1,r11
0000b4  ea4f0bcb          LSL      r11,r11,#3
0000b8  fb0b2a0c          MLA      r10,r11,r12,r2
;;;487    				DCTVAL *dct=(DCTVAL*)&cinfo->comp[cn].dct_table[bn];//dct表元素
0000bc  eb050bc5          ADD      r11,r5,r5,LSL #3
0000c0  4672              MOV      r2,lr
0000c2  eb02028b          ADD      r2,r2,r11,LSL #2
0000c6  69d2              LDR      r2,[r2,#0x1c]
0000c8  eb0212c1          ADD      r2,r2,r1,LSL #7
0000cc  9200              STR      r2,[sp,#0]
;;;488    				for(pn=0;pn<DCTSIZE2;pn++)//对于每个元素
0000ce  2000              MOVS     r0,#0
0000d0  e01a              B        |L11.264|
                  |L11.210|
;;;489    				{				
;;;490    					if(pn%DCTSIZE==0)pdata=(JSAMPLE*)(pn/DCTSIZE*v_samp_delta+block_start);
0000d2  ea4f7be0          ASR      r11,r0,#31
0000d6  eb007b5b          ADD      r11,r0,r11,LSR #29
0000da  ea4f0beb          ASR      r11,r11,#3
0000de  eba00bcb          SUB      r11,r0,r11,LSL #3
0000e2  f1bb0f00          CMP      r11,#0
0000e6  d108              BNE      |L11.250|
0000e8  4602              MOV      r2,r0
0000ea  ea4f7be0          ASR      r11,r0,#31
0000ee  eb007b5b          ADD      r11,r0,r11,LSR #29
0000f2  ea4f0beb          ASR      r11,r11,#3
0000f6  fb0ba90c          MLA      r9,r11,r12,r10
                  |L11.250|
;;;491    					dct[pn]=*pdata;
0000fa  f899b000          LDRB     r11,[r9,#0]
0000fe  9a00              LDR      r2,[sp,#0]
000100  f822b010          STRH     r11,[r2,r0,LSL #1]
;;;492    					pdata+=h_samp_delta;
000104  4499              ADD      r9,r9,r3
000106  1c40              ADDS     r0,r0,#1              ;488
                  |L11.264|
000108  2840              CMP      r0,#0x40              ;488
00010a  dbe2              BLT      |L11.210|
00010c  1c49              ADDS     r1,r1,#1              ;483
                  |L11.270|
00010e  eb050ac5          ADD      r10,r5,r5,LSL #3      ;483
000112  f104021c          ADD      r2,r4,#0x1c           ;483
000116  eb02028a          ADD      r2,r2,r10,LSL #2      ;483
00011a  6992              LDR      r2,[r2,#0x18]         ;483
00011c  428a              CMP      r2,r1                 ;483
00011e  dcaf              BGT      |L11.128|
000120  1c6d              ADDS     r5,r5,#1              ;474
                  |L11.290|
000122  69a0              LDR      r0,[r4,#0x18]         ;474
000124  42a8              CMP      r0,r5                 ;474
000126  dc85              BGT      |L11.52|
;;;493    				}
;;;494    			}
;;;495    		}//颜色元件处理循环结束
;;;496    		mcu_start+=mcu_delta;		
000128  4447              ADD      r7,r7,r8
;;;497    		jint_process_mcu(cinfo);//处理当前MCU数据
00012a  4620              MOV      r0,r4
00012c  f7fffffe          BL       jint_process_mcu
000130  1c76              ADDS     r6,r6,#1              ;470
                  |L11.306|
000132  f8d400ac          LDR      r0,[r4,#0xac]         ;470
000136  42b0              CMP      r0,r6                 ;470
000138  f73faf7a          BGT      |L11.48|
;;;498    	}
;;;499    }
00013c  e8bd9ffc          POP      {r2-r12,pc}
;;;500    //RGB转YUV
                          ENDP


                          AREA ||i.jint_std_huff_tables||, CODE, READONLY, ALIGN=2

                  jint_std_huff_tables PROC
;;;168    //设置标准huffman表
;;;169    void jint_std_huff_tables (jpeg_compress_info *cinfo) 
000000  b538              PUSH     {r3-r5,lr}
;;;170    { 
000002  4604              MOV      r4,r0
;;;171      	jint_add_huff_table(cinfo,0,DC_HUFF_TBL,bits_dc_luminance,val_dc_luminance);
000004  4810              LDR      r0,|L12.72|
000006  4b11              LDR      r3,|L12.76|
000008  2200              MOVS     r2,#0
00000a  4611              MOV      r1,r2
00000c  9000              STR      r0,[sp,#0]
00000e  4620              MOV      r0,r4
000010  f7fffffe          BL       jint_add_huff_table
;;;172      	jint_add_huff_table(cinfo,0,AC_HUFF_TBL,bits_ac_luminance,val_ac_luminance);
000014  480e              LDR      r0,|L12.80|
000016  4b0f              LDR      r3,|L12.84|
000018  2201              MOVS     r2,#1
00001a  2100              MOVS     r1,#0
00001c  9000              STR      r0,[sp,#0]
00001e  4620              MOV      r0,r4
000020  f7fffffe          BL       jint_add_huff_table
;;;173      	jint_add_huff_table(cinfo,1,DC_HUFF_TBL,bits_dc_chrominance,val_dc_chrominance);
000024  480c              LDR      r0,|L12.88|
000026  4b0d              LDR      r3,|L12.92|
000028  2200              MOVS     r2,#0
00002a  2101              MOVS     r1,#1
00002c  9000              STR      r0,[sp,#0]
00002e  4620              MOV      r0,r4
000030  f7fffffe          BL       jint_add_huff_table
;;;174      	jint_add_huff_table(cinfo,1,AC_HUFF_TBL,bits_ac_chrominance,val_ac_chrominance);
000034  480a              LDR      r0,|L12.96|
000036  4b0b              LDR      r3,|L12.100|
000038  2201              MOVS     r2,#1
00003a  4611              MOV      r1,r2
00003c  9000              STR      r0,[sp,#0]
00003e  4620              MOV      r0,r4
000040  f7fffffe          BL       jint_add_huff_table
;;;175    }
000044  bd38              POP      {r3-r5,pc}
;;;176    //添加huffman表
                          ENDP

000046  0000              DCW      0x0000
                  |L12.72|
                          DCD      val_dc_luminance
                  |L12.76|
                          DCD      bits_dc_luminance
                  |L12.80|
                          DCD      val_ac_luminance
                  |L12.84|
                          DCD      bits_ac_luminance
                  |L12.88|
                          DCD      val_dc_chrominance
                  |L12.92|
                          DCD      bits_dc_chrominance
                  |L12.96|
                          DCD      val_ac_chrominance
                  |L12.100|
                          DCD      bits_ac_chrominance

                          AREA ||i.jint_std_quant_tables||, CODE, READONLY, ALIGN=2

                  jint_std_quant_tables PROC
;;;143    //设置标准量化表
;;;144    void jint_std_quant_tables(jpeg_compress_info *cinfo)
000000  b510              PUSH     {r4,lr}
;;;145    {
000002  4604              MOV      r4,r0
;;;146      	jint_add_quant_table(cinfo,0,std_luminance_quant_tbl,cinfo->quality);
000004  4a06              LDR      r2,|L13.32|
000006  2100              MOVS     r1,#0
000008  4620              MOV      r0,r4
00000a  6923              LDR      r3,[r4,#0x10]
00000c  f7fffffe          BL       jint_add_quant_table
;;;147      	jint_add_quant_table(cinfo,1,std_chrominance_quant_tbl,cinfo->quality);
000010  4a04              LDR      r2,|L13.36|
000012  2101              MOVS     r1,#1
000014  4620              MOV      r0,r4
000016  6923              LDR      r3,[r4,#0x10]
000018  f7fffffe          BL       jint_add_quant_table
;;;148    }
00001c  bd10              POP      {r4,pc}
;;;149    //添加量化表
                          ENDP

00001e  0000              DCW      0x0000
                  |L13.32|
                          DCD      std_luminance_quant_tbl
                  |L13.36|
                          DCD      std_chrominance_quant_tbl

                          AREA ||i.jmkr_write_end||, CODE, READONLY, ALIGN=1

                  jmkr_write_end PROC
;;;447    //写文件结束标志
;;;448    void jmkr_write_end(jpeg_compress_info *cinfo) 
000000  b510              PUSH     {r4,lr}
;;;449    {
000002  4604              MOV      r4,r0
;;;450      	jutl_write_byte(0xFF,cinfo->output,cinfo  );
000004  4622              MOV      r2,r4
000006  20ff              MOVS     r0,#0xff
000008  68a1              LDR      r1,[r4,#8]
00000a  f7fffffe          BL       jutl_write_byte
;;;451    	cinfo->state =JC_FINISH;//状态为完成
00000e  2003              MOVS     r0,#3
000010  f88400fc          STRB     r0,[r4,#0xfc]
;;;452      	jutl_write_byte(EOI,cinfo->output,cinfo  );	
000014  4622              MOV      r2,r4
000016  20d9              MOVS     r0,#0xd9
000018  68a1              LDR      r1,[r4,#8]
00001a  f7fffffe          BL       jutl_write_byte
;;;453    }
00001e  bd10              POP      {r4,pc}
;;;454    ///////////////////////////////////////////////////////////////////////////////////////////
                          ENDP


                          AREA ||i.jmkr_write_frame_head||, CODE, READONLY, ALIGN=1

                  jmkr_write_frame_head PROC
;;;353    //写入帧头
;;;354    void jmkr_write_frame_head(jpeg_compress_info *cinfo)
000000  e92d4ffe          PUSH     {r1-r11,lr}
;;;355    {
000004  4604              MOV      r4,r0
;;;356      	int i;
;;;357      	u16 Lf,X,Y;
;;;358      	u8  P,Nf,C,H,V,Tq;
;;;359    	jutl_write_byte(0xFF,cinfo->output,cinfo  );
000006  4622              MOV      r2,r4
000008  20ff              MOVS     r0,#0xff
00000a  68a1              LDR      r1,[r4,#8]
00000c  f7fffffe          BL       jutl_write_byte
;;;360    	jutl_write_byte(SOF0,cinfo->output,cinfo  );
000010  4622              MOV      r2,r4
000012  20c0              MOVS     r0,#0xc0
000014  68a1              LDR      r1,[r4,#8]
000016  f7fffffe          BL       jutl_write_byte
;;;361    	Nf=cinfo->num_comp;
00001a  7e26              LDRB     r6,[r4,#0x18]
;;;362    	P=cinfo->precision;
00001c  7b20              LDRB     r0,[r4,#0xc]
00001e  9002              STR      r0,[sp,#8]
;;;363    	X=cinfo->image_width;
000020  8820              LDRH     r0,[r4,#0]
000022  fa1ff880          UXTH     r8,r0
;;;364    	Y=cinfo->image_height;
000026  88a0              LDRH     r0,[r4,#4]
000028  fa1ff980          UXTH     r9,r0
;;;365    	Lf=8+3*Nf;
00002c  eb060046          ADD      r0,r6,r6,LSL #1
000030  f1000708          ADD      r7,r0,#8
;;;366    	jutl_write_byte(Lf>>8,cinfo->output,cinfo  );
000034  1238              ASRS     r0,r7,#8
000036  4622              MOV      r2,r4
000038  68a1              LDR      r1,[r4,#8]
00003a  f7fffffe          BL       jutl_write_byte
;;;367    	jutl_write_byte(Lf&0xFF,cinfo->output,cinfo  );
00003e  b2f8              UXTB     r0,r7
000040  4622              MOV      r2,r4
000042  68a1              LDR      r1,[r4,#8]
000044  f7fffffe          BL       jutl_write_byte
;;;368    	jutl_write_byte(P,cinfo->output,cinfo  );
000048  4622              MOV      r2,r4
00004a  68a1              LDR      r1,[r4,#8]
00004c  9802              LDR      r0,[sp,#8]
00004e  f7fffffe          BL       jutl_write_byte
;;;369    	jutl_write_byte(Y>>8,cinfo->output,cinfo  );
000052  ea4f2029          ASR      r0,r9,#8
000056  4622              MOV      r2,r4
000058  68a1              LDR      r1,[r4,#8]
00005a  f7fffffe          BL       jutl_write_byte
;;;370    	jutl_write_byte(Y&0xFF,cinfo->output,cinfo  );
00005e  f00900ff          AND      r0,r9,#0xff
000062  4622              MOV      r2,r4
000064  68a1              LDR      r1,[r4,#8]
000066  f7fffffe          BL       jutl_write_byte
;;;371    	jutl_write_byte(X>>8,cinfo->output,cinfo  );
00006a  ea4f2028          ASR      r0,r8,#8
00006e  4622              MOV      r2,r4
000070  68a1              LDR      r1,[r4,#8]
000072  f7fffffe          BL       jutl_write_byte
;;;372    	jutl_write_byte(X&0xFF,cinfo->output,cinfo  );
000076  f00800ff          AND      r0,r8,#0xff
00007a  4622              MOV      r2,r4
00007c  68a1              LDR      r1,[r4,#8]
00007e  f7fffffe          BL       jutl_write_byte
;;;373    	jutl_write_byte(Nf,cinfo->output,cinfo  );
000082  4622              MOV      r2,r4
000084  4630              MOV      r0,r6
000086  68a1              LDR      r1,[r4,#8]
000088  f7fffffe          BL       jutl_write_byte
;;;374    	for(i=0;i<Nf;i++)
00008c  2500              MOVS     r5,#0
00008e  e02e              B        |L15.238|
                  |L15.144|
;;;375    	{
;;;376    		C=cinfo->comp[i].comp_id;
000090  eb0501c5          ADD      r1,r5,r5,LSL #3
000094  f104001c          ADD      r0,r4,#0x1c
000098  f810a021          LDRB     r10,[r0,r1,LSL #2]
;;;377    		H=cinfo->comp[i].h_factor;
00009c  eb0501c5          ADD      r1,r5,r5,LSL #3
0000a0  eb000081          ADD      r0,r0,r1,LSL #2
0000a4  f890b004          LDRB     r11,[r0,#4]
;;;378    		V=cinfo->comp[i].v_factor;
0000a8  eb0501c5          ADD      r1,r5,r5,LSL #3
0000ac  f104001c          ADD      r0,r4,#0x1c
0000b0  eb000081          ADD      r0,r0,r1,LSL #2
0000b4  7a02              LDRB     r2,[r0,#8]
0000b6  9201              STR      r2,[sp,#4]
;;;379    		Tq=cinfo->comp[i].quant_tbl_no;
0000b8  eb0501c5          ADD      r1,r5,r5,LSL #3
0000bc  f104001c          ADD      r0,r4,#0x1c
0000c0  eb000081          ADD      r0,r0,r1,LSL #2
0000c4  7b00              LDRB     r0,[r0,#0xc]
0000c6  9000              STR      r0,[sp,#0]
;;;380    		jutl_write_byte(C,cinfo->output,cinfo  );
0000c8  4622              MOV      r2,r4
0000ca  4650              MOV      r0,r10
0000cc  68a1              LDR      r1,[r4,#8]
0000ce  f7fffffe          BL       jutl_write_byte
;;;381    		jutl_write_byte(((H<<4)|V),cinfo->output,cinfo  );
0000d2  68a1              LDR      r1,[r4,#8]
0000d4  9a01              LDR      r2,[sp,#4]
0000d6  ea42120b          ORR      r2,r2,r11,LSL #4
0000da  b2d0              UXTB     r0,r2
0000dc  4622              MOV      r2,r4
0000de  f7fffffe          BL       jutl_write_byte
;;;382    		jutl_write_byte(Tq,cinfo->output,cinfo  );
0000e2  4622              MOV      r2,r4
0000e4  68a1              LDR      r1,[r4,#8]
0000e6  9800              LDR      r0,[sp,#0]
0000e8  f7fffffe          BL       jutl_write_byte
0000ec  1c6d              ADDS     r5,r5,#1              ;374
                  |L15.238|
0000ee  42b5              CMP      r5,r6                 ;374
0000f0  dbce              BLT      |L15.144|
;;;383    	}
;;;384    }
0000f2  e8bd8ffe          POP      {r1-r11,pc}
;;;385    //写入哈夫曼表
                          ENDP


                          AREA ||i.jmkr_write_huff_table||, CODE, READONLY, ALIGN=1

                  jmkr_write_huff_table PROC
;;;385    //写入哈夫曼表
;;;386    void jmkr_write_huff_table(jpeg_compress_info *cinfo)
000000  e92d41f0          PUSH     {r4-r8,lr}
;;;387    {
000004  4604              MOV      r4,r0
;;;388      	int i,j,num_val;
;;;389      	u16 Lh;
;;;390    	for(i=0;i<NUM_HUFF_TBLS;i++)//输出直流HUFFMAN码
000006  2600              MOVS     r6,#0
000008  e04f              B        |L16.170|
                  |L16.10|
;;;391    	{
;;;392    		num_val=0;
00000a  2700              MOVS     r7,#0
;;;393    		if(!cinfo->dc_huff_table[i])continue;
00000c  f10400cc          ADD      r0,r4,#0xcc
000010  f8500026          LDR      r0,[r0,r6,LSL #2]
000014  b900              CBNZ     r0,|L16.24|
000016  e047              B        |L16.168|
                  |L16.24|
;;;394    		jutl_write_byte(0xFF,cinfo->output,cinfo  );
000018  4622              MOV      r2,r4
00001a  20ff              MOVS     r0,#0xff
00001c  68a1              LDR      r1,[r4,#8]
00001e  f7fffffe          BL       jutl_write_byte
;;;395    		jutl_write_byte(DHT,cinfo->output,cinfo  );
000022  4622              MOV      r2,r4
000024  20c4              MOVS     r0,#0xc4
000026  68a1              LDR      r1,[r4,#8]
000028  f7fffffe          BL       jutl_write_byte
;;;396    		for(j=1;j<=16;j++)num_val+=cinfo->dc_huff_table[i]->bits[j];
00002c  2501              MOVS     r5,#1
00002e  e006              B        |L16.62|
                  |L16.48|
000030  f10400cc          ADD      r0,r4,#0xcc
000034  f8500026          LDR      r0,[r0,r6,LSL #2]
000038  5d40              LDRB     r0,[r0,r5]
00003a  4407              ADD      r7,r7,r0
00003c  1c6d              ADDS     r5,r5,#1
                  |L16.62|
00003e  2d10              CMP      r5,#0x10
000040  ddf6              BLE      |L16.48|
;;;397    		Lh=3+16+num_val;//长度,固定为43h
000042  f1070013          ADD      r0,r7,#0x13
000046  fa1ff880          UXTH     r8,r0
;;;398    		jutl_write_byte(Lh>>8,cinfo->output,cinfo  );
00004a  ea4f2028          ASR      r0,r8,#8
00004e  4622              MOV      r2,r4
000050  68a1              LDR      r1,[r4,#8]
000052  f7fffffe          BL       jutl_write_byte
;;;399    		jutl_write_byte(Lh&0xFF,cinfo->output,cinfo  );
000056  f00800ff          AND      r0,r8,#0xff
00005a  4622              MOV      r2,r4
00005c  68a1              LDR      r1,[r4,#8]
00005e  f7fffffe          BL       jutl_write_byte
;;;400    		jutl_write_byte(i,cinfo->output,cinfo  );//输出ID
000062  b2f0              UXTB     r0,r6
000064  4622              MOV      r2,r4
000066  68a1              LDR      r1,[r4,#8]
000068  f7fffffe          BL       jutl_write_byte
;;;401    		for(j=1;j<=16;j++)jutl_write_byte(cinfo->dc_huff_table[i]->bits[j],cinfo->output,cinfo  );//输出bits
00006c  2501              MOVS     r5,#1
00006e  e009              B        |L16.132|
                  |L16.112|
000070  f10402cc          ADD      r2,r4,#0xcc
000074  f8522026          LDR      r2,[r2,r6,LSL #2]
000078  5d50              LDRB     r0,[r2,r5]
00007a  4622              MOV      r2,r4
00007c  68a1              LDR      r1,[r4,#8]
00007e  f7fffffe          BL       jutl_write_byte
000082  1c6d              ADDS     r5,r5,#1
                  |L16.132|
000084  2d10              CMP      r5,#0x10
000086  ddf3              BLE      |L16.112|
;;;402    		for(j=0;j<num_val;j++)jutl_write_byte(cinfo->dc_huff_table[i]->huffval[j],cinfo->output,cinfo  );
000088  2500              MOVS     r5,#0
00008a  e00a              B        |L16.162|
                  |L16.140|
00008c  f10402cc          ADD      r2,r4,#0xcc
000090  f8522026          LDR      r2,[r2,r6,LSL #2]
000094  3211              ADDS     r2,r2,#0x11
000096  5d50              LDRB     r0,[r2,r5]
000098  4622              MOV      r2,r4
00009a  68a1              LDR      r1,[r4,#8]
00009c  f7fffffe          BL       jutl_write_byte
0000a0  1c6d              ADDS     r5,r5,#1
                  |L16.162|
0000a2  42bd              CMP      r5,r7
0000a4  dbf2              BLT      |L16.140|
0000a6  bf00              NOP                            ;393
                  |L16.168|
0000a8  1c76              ADDS     r6,r6,#1              ;390
                  |L16.170|
0000aa  2e02              CMP      r6,#2                 ;390
0000ac  dbad              BLT      |L16.10|
;;;403    	}
;;;404    	for(i=0;i<NUM_HUFF_TBLS;i++)//输出交流HUFFMAN码
0000ae  2600              MOVS     r6,#0
0000b0  e051              B        |L16.342|
                  |L16.178|
;;;405    	{
;;;406    		num_val=0;
0000b2  2700              MOVS     r7,#0
;;;407    		if(!cinfo->ac_huff_table[i])continue;
0000b4  f10400d4          ADD      r0,r4,#0xd4
0000b8  f8500026          LDR      r0,[r0,r6,LSL #2]
0000bc  b900              CBNZ     r0,|L16.192|
0000be  e049              B        |L16.340|
                  |L16.192|
;;;408    		jutl_write_byte(0xFF,cinfo->output,cinfo  );
0000c0  4622              MOV      r2,r4
0000c2  20ff              MOVS     r0,#0xff
0000c4  68a1              LDR      r1,[r4,#8]
0000c6  f7fffffe          BL       jutl_write_byte
;;;409    		jutl_write_byte(DHT,cinfo->output,cinfo  );
0000ca  4622              MOV      r2,r4
0000cc  20c4              MOVS     r0,#0xc4
0000ce  68a1              LDR      r1,[r4,#8]
0000d0  f7fffffe          BL       jutl_write_byte
;;;410    		for(j=1;j<=16;j++)num_val+=cinfo->ac_huff_table[i]->bits[j];
0000d4  2501              MOVS     r5,#1
0000d6  e006              B        |L16.230|
                  |L16.216|
0000d8  f10400d4          ADD      r0,r4,#0xd4
0000dc  f8500026          LDR      r0,[r0,r6,LSL #2]
0000e0  5d40              LDRB     r0,[r0,r5]
0000e2  4407              ADD      r7,r7,r0
0000e4  1c6d              ADDS     r5,r5,#1
                  |L16.230|
0000e6  2d10              CMP      r5,#0x10
0000e8  ddf6              BLE      |L16.216|
;;;411    		Lh=3+16+num_val;//长度,固定为43h
0000ea  f1070013          ADD      r0,r7,#0x13
0000ee  fa1ff880          UXTH     r8,r0
;;;412    		jutl_write_byte(Lh>>8,cinfo->output,cinfo  );
0000f2  ea4f2028          ASR      r0,r8,#8
0000f6  4622              MOV      r2,r4
0000f8  68a1              LDR      r1,[r4,#8]
0000fa  f7fffffe          BL       jutl_write_byte
;;;413    		jutl_write_byte(Lh&0xFF,cinfo->output,cinfo  );
0000fe  f00800ff          AND      r0,r8,#0xff
000102  4622              MOV      r2,r4
000104  68a1              LDR      r1,[r4,#8]
000106  f7fffffe          BL       jutl_write_byte
;;;414    		jutl_write_byte((0x10|i),cinfo->output,cinfo  );//输出ID
00010a  b2f2              UXTB     r2,r6
00010c  f0420010          ORR      r0,r2,#0x10
000110  4622              MOV      r2,r4
000112  68a1              LDR      r1,[r4,#8]
000114  f7fffffe          BL       jutl_write_byte
;;;415    		for(j=1;j<=16;j++)jutl_write_byte(cinfo->ac_huff_table[i]->bits[j],cinfo->output,cinfo  );//输出bits
000118  2501              MOVS     r5,#1
00011a  e009              B        |L16.304|
                  |L16.284|
00011c  f10402d4          ADD      r2,r4,#0xd4
000120  f8522026          LDR      r2,[r2,r6,LSL #2]
000124  5d50              LDRB     r0,[r2,r5]
000126  4622              MOV      r2,r4
000128  68a1              LDR      r1,[r4,#8]
00012a  f7fffffe          BL       jutl_write_byte
00012e  1c6d              ADDS     r5,r5,#1
                  |L16.304|
000130  2d10              CMP      r5,#0x10
000132  ddf3              BLE      |L16.284|
;;;416    		for(j=0;j<num_val;j++)jutl_write_byte(cinfo->ac_huff_table[i]->huffval[j],cinfo->output,cinfo  );
000134  2500              MOVS     r5,#0
000136  e00a              B        |L16.334|
                  |L16.312|
000138  f10402d4          ADD      r2,r4,#0xd4
00013c  f8522026          LDR      r2,[r2,r6,LSL #2]
000140  3211              ADDS     r2,r2,#0x11
000142  5d50              LDRB     r0,[r2,r5]
000144  4622              MOV      r2,r4
000146  68a1              LDR      r1,[r4,#8]
000148  f7fffffe          BL       jutl_write_byte
00014c  1c6d              ADDS     r5,r5,#1
                  |L16.334|
00014e  42bd              CMP      r5,r7
000150  dbf2              BLT      |L16.312|
000152  bf00              NOP                            ;407
                  |L16.340|
000154  1c76              ADDS     r6,r6,#1              ;404
                  |L16.342|
000156  2e02              CMP      r6,#2                 ;404
000158  dbab              BLT      |L16.178|
;;;417    	}
;;;418    }
00015a  e8bd81f0          POP      {r4-r8,pc}
;;;419    //写入扫描开始标志
                          ENDP


                          AREA ||i.jmkr_write_image_start||, CODE, READONLY, ALIGN=1

                  jmkr_write_image_start PROC
;;;322    //写入文件开始标志 
;;;323    void jmkr_write_image_start(jpeg_compress_info *cinfo)
000000  b510              PUSH     {r4,lr}
;;;324    {
000002  4604              MOV      r4,r0
;;;325      	jutl_write_byte(0xFF,cinfo->output,cinfo);
000004  4622              MOV      r2,r4
000006  20ff              MOVS     r0,#0xff
000008  68a1              LDR      r1,[r4,#8]
00000a  f7fffffe          BL       jutl_write_byte
;;;326      	jutl_write_byte(SOI,cinfo->output,cinfo);
00000e  4622              MOV      r2,r4
000010  20d8              MOVS     r0,#0xd8
000012  68a1              LDR      r1,[r4,#8]
000014  f7fffffe          BL       jutl_write_byte
;;;327    }
000018  bd10              POP      {r4,pc}
;;;328    //写入APP0应用数据段
                          ENDP


                          AREA ||i.jmkr_write_jfif||, CODE, READONLY, ALIGN=2

                  jmkr_write_jfif PROC
;;;328    //写入APP0应用数据段
;;;329    void jmkr_write_jfif(jpeg_compress_info *cinfo)
000000  b570              PUSH     {r4-r6,lr}
;;;330    {
000002  4604              MOV      r4,r0
;;;331      	int i;
;;;332      	for (i=0;i<18;i++)jutl_write_byte(jfcode[i], cinfo->output,cinfo);
000004  2500              MOVS     r5,#0
000006  e006              B        |L18.22|
                  |L18.8|
000008  4a04              LDR      r2,|L18.28|
00000a  5d50              LDRB     r0,[r2,r5]
00000c  4622              MOV      r2,r4
00000e  68a1              LDR      r1,[r4,#8]
000010  f7fffffe          BL       jutl_write_byte
000014  1c6d              ADDS     r5,r5,#1
                  |L18.22|
000016  2d12              CMP      r5,#0x12
000018  dbf6              BLT      |L18.8|
;;;333    }
00001a  bd70              POP      {r4-r6,pc}
;;;334    //写入量化表
                          ENDP

                  |L18.28|
                          DCD      jfcode

                          AREA ||i.jmkr_write_quant_table||, CODE, READONLY, ALIGN=1

                  jmkr_write_quant_table PROC
;;;334    //写入量化表
;;;335    void jmkr_write_quant_table(jpeg_compress_info *cinfo)
000000  e92d41f0          PUSH     {r4-r8,lr}
;;;336    {
000004  4604              MOV      r4,r0
;;;337      	int i, j;
;;;338      	for (i=0;i<NUM_QUANT_TBLS;i++) 
000006  2500              MOVS     r5,#0
000008  e030              B        |L19.108|
                  |L19.10|
;;;339      	{
;;;340    	    if (!cinfo->quant_table[i])continue;	      
00000a  f10400dc          ADD      r0,r4,#0xdc
00000e  f8500025          LDR      r0,[r0,r5,LSL #2]
000012  b900              CBNZ     r0,|L19.22|
000014  e029              B        |L19.106|
                  |L19.22|
;;;341    	    jutl_write_byte(0xFF,cinfo->output,cinfo);
000016  4622              MOV      r2,r4
000018  20ff              MOVS     r0,#0xff
00001a  68a1              LDR      r1,[r4,#8]
00001c  f7fffffe          BL       jutl_write_byte
;;;342    	    jutl_write_byte(DQT,cinfo->output,cinfo);
000020  4622              MOV      r2,r4
000022  20db              MOVS     r0,#0xdb
000024  68a1              LDR      r1,[r4,#8]
000026  f7fffffe          BL       jutl_write_byte
;;;343    	    jutl_write_byte(0x00,cinfo->output,cinfo);
00002a  4622              MOV      r2,r4
00002c  2000              MOVS     r0,#0
00002e  68a1              LDR      r1,[r4,#8]
000030  f7fffffe          BL       jutl_write_byte
;;;344    	    jutl_write_byte(0x43,cinfo->output,cinfo );//长度:固定为43h
000034  4622              MOV      r2,r4
000036  2043              MOVS     r0,#0x43
000038  68a1              LDR      r1,[r4,#8]
00003a  f7fffffe          BL       jutl_write_byte
;;;345    	    jutl_write_byte(i&0xFF,cinfo->output,cinfo );//ouput Pq & Tq
00003e  b2e8              UXTB     r0,r5
000040  4622              MOV      r2,r4
000042  68a1              LDR      r1,[r4,#8]
000044  f7fffffe          BL       jutl_write_byte
;;;346    	    for (j=0;j<DCTSIZE2;j++) 
000048  2600              MOVS     r6,#0
00004a  e00b              B        |L19.100|
                  |L19.76|
;;;347    	    {
;;;348    	      	u8 Q=cinfo->quant_table[i]->quantval[j];
00004c  f10400dc          ADD      r0,r4,#0xdc
000050  f8500025          LDR      r0,[r0,r5,LSL #2]
000054  f8107016          LDRB     r7,[r0,r6,LSL #1]
;;;349    	      	jutl_write_byte(Q,cinfo->output,cinfo  );
000058  4622              MOV      r2,r4
00005a  4638              MOV      r0,r7
00005c  68a1              LDR      r1,[r4,#8]
00005e  f7fffffe          BL       jutl_write_byte
000062  1c76              ADDS     r6,r6,#1              ;346
                  |L19.100|
000064  2e40              CMP      r6,#0x40              ;346
000066  dbf1              BLT      |L19.76|
000068  bf00              NOP                            ;340
                  |L19.106|
00006a  1c6d              ADDS     r5,r5,#1              ;338
                  |L19.108|
00006c  2d04              CMP      r5,#4                 ;338
00006e  dbcc              BLT      |L19.10|
;;;350    	    }
;;;351      	}
;;;352    }
000070  e8bd81f0          POP      {r4-r8,pc}
;;;353    //写入帧头
                          ENDP


                          AREA ||i.jmkr_write_scan_head||, CODE, READONLY, ALIGN=1

                  jmkr_write_scan_head PROC
;;;419    //写入扫描开始标志
;;;420    void jmkr_write_scan_head(jpeg_compress_info *cinfo) 
000000  e92d4ffe          PUSH     {r1-r11,lr}
;;;421    {
000004  4604              MOV      r4,r0
;;;422      	int i;
;;;423      	u16 Ls;
;;;424      	u8 Ns,Ss,Se,Ah,Al,Cs,Td,Ta;
;;;425    	jutl_write_byte(0xFF,cinfo->output,cinfo  );
000006  4622              MOV      r2,r4
000008  20ff              MOVS     r0,#0xff
00000a  68a1              LDR      r1,[r4,#8]
00000c  f7fffffe          BL       jutl_write_byte
;;;426    	jutl_write_byte(SOS,cinfo->output,cinfo  );
000010  4622              MOV      r2,r4
000012  20da              MOVS     r0,#0xda
000014  68a1              LDR      r1,[r4,#8]
000016  f7fffffe          BL       jutl_write_byte
;;;427    	Ns=cinfo->num_comp;
00001a  7e26              LDRB     r6,[r4,#0x18]
;;;428    	Ls=6+2*Ns;
00001c  0070              LSLS     r0,r6,#1
00001e  1d87              ADDS     r7,r0,#6
;;;429    	Ss=0;//定值!不改变
000020  2000              MOVS     r0,#0
000022  9002              STR      r0,[sp,#8]
;;;430    	Se=63;
000024  203f              MOVS     r0,#0x3f
000026  9001              STR      r0,[sp,#4]
;;;431    	Ah=Al=0;
000028  2000              MOVS     r0,#0
00002a  4683              MOV      r11,r0
00002c  9000              STR      r0,[sp,#0]
;;;432    	jutl_write_byte(Ls>>8,cinfo->output,cinfo  );
00002e  1238              ASRS     r0,r7,#8
000030  4622              MOV      r2,r4
000032  68a1              LDR      r1,[r4,#8]
000034  f7fffffe          BL       jutl_write_byte
;;;433    	jutl_write_byte(Ls&0xFF,cinfo->output,cinfo  );
000038  b2f8              UXTB     r0,r7
00003a  4622              MOV      r2,r4
00003c  68a1              LDR      r1,[r4,#8]
00003e  f7fffffe          BL       jutl_write_byte
;;;434    	jutl_write_byte(Ns,cinfo->output,cinfo  );
000042  4622              MOV      r2,r4
000044  4630              MOV      r0,r6
000046  68a1              LDR      r1,[r4,#8]
000048  f7fffffe          BL       jutl_write_byte
;;;435    	for(i=0;i<Ns;i++)
00004c  2500              MOVS     r5,#0
00004e  e020              B        |L20.146|
                  |L20.80|
;;;436    	{
;;;437    		Cs=cinfo->comp[i].comp_id;
000050  eb0501c5          ADD      r1,r5,r5,LSL #3
000054  f104001c          ADD      r0,r4,#0x1c
000058  f8108021          LDRB     r8,[r0,r1,LSL #2]
;;;438    		Td=cinfo->comp[i].dc_tbl_no;
00005c  eb0501c5          ADD      r1,r5,r5,LSL #3
000060  eb000081          ADD      r0,r0,r1,LSL #2
000064  f8909010          LDRB     r9,[r0,#0x10]
;;;439    		Ta=cinfo->comp[i].ac_tbl_no;
000068  eb0501c5          ADD      r1,r5,r5,LSL #3
00006c  f104001c          ADD      r0,r4,#0x1c
000070  eb000081          ADD      r0,r0,r1,LSL #2
000074  f890a014          LDRB     r10,[r0,#0x14]
;;;440    		jutl_write_byte(Cs,cinfo->output,cinfo  );
000078  4622              MOV      r2,r4
00007a  4640              MOV      r0,r8
00007c  68a1              LDR      r1,[r4,#8]
00007e  f7fffffe          BL       jutl_write_byte
;;;441    		jutl_write_byte((Td<<4|Ta),cinfo->output,cinfo  );
000082  ea4a1209          ORR      r2,r10,r9,LSL #4
000086  b2d0              UXTB     r0,r2
000088  4622              MOV      r2,r4
00008a  68a1              LDR      r1,[r4,#8]
00008c  f7fffffe          BL       jutl_write_byte
000090  1c6d              ADDS     r5,r5,#1              ;435
                  |L20.146|
000092  42b5              CMP      r5,r6                 ;435
000094  dbdc              BLT      |L20.80|
;;;442    	}
;;;443    	jutl_write_byte(Ss,cinfo->output,cinfo  );
000096  4622              MOV      r2,r4
000098  68a1              LDR      r1,[r4,#8]
00009a  9802              LDR      r0,[sp,#8]
00009c  f7fffffe          BL       jutl_write_byte
;;;444    	jutl_write_byte(Se,cinfo->output,cinfo  );
0000a0  4622              MOV      r2,r4
0000a2  68a1              LDR      r1,[r4,#8]
0000a4  9801              LDR      r0,[sp,#4]
0000a6  f7fffffe          BL       jutl_write_byte
;;;445    	jutl_write_byte(((Ah<<4)|Al),cinfo->output,cinfo  );
0000aa  68a1              LDR      r1,[r4,#8]
0000ac  9a00              LDR      r2,[sp,#0]
0000ae  ea42120b          ORR      r2,r2,r11,LSL #4
0000b2  b2d0              UXTB     r0,r2
0000b4  4622              MOV      r2,r4
0000b6  f7fffffe          BL       jutl_write_byte
;;;446    }
0000ba  e8bd8ffe          POP      {r1-r11,pc}
;;;447    //写文件结束标志
                          ENDP


                          AREA ||i.jmkr_write_start||, CODE, READONLY, ALIGN=1

                  jmkr_write_start PROC
;;;312    //写头信息
;;;313    void jmkr_write_start(jpeg_compress_info *cinfo) 
000000  b510              PUSH     {r4,lr}
;;;314    {
000002  4604              MOV      r4,r0
;;;315      	jmkr_write_image_start(cinfo);//文件开始标志
000004  4620              MOV      r0,r4
000006  f7fffffe          BL       jmkr_write_image_start
;;;316      	jmkr_write_jfif(cinfo);//APP0信息
00000a  4620              MOV      r0,r4
00000c  f7fffffe          BL       jmkr_write_jfif
;;;317      	jmkr_write_quant_table(cinfo);//quant表
000010  4620              MOV      r0,r4
000012  f7fffffe          BL       jmkr_write_quant_table
;;;318      	jmkr_write_frame_head(cinfo);//帧头
000016  4620              MOV      r0,r4
000018  f7fffffe          BL       jmkr_write_frame_head
;;;319      	jmkr_write_huff_table(cinfo);//哈夫曼表
00001c  4620              MOV      r0,r4
00001e  f7fffffe          BL       jmkr_write_huff_table
;;;320      	jmkr_write_scan_head(cinfo);//扫描开始
000022  4620              MOV      r0,r4
000024  f7fffffe          BL       jmkr_write_scan_head
;;;321    }
000028  bd10              POP      {r4,pc}
;;;322    //写入文件开始标志 
                          ENDP


                          AREA ||i.jpeg_calc_value||, CODE, READONLY, ALIGN=2

                  jpeg_calc_value PROC
;;;244    //计算出一些有用的值并分配到缓冲区中
;;;245    void jpeg_calc_value(jpeg_compress_info *cinfo,u8 *inbuf_buf) 
000000  e92d5ff0          PUSH     {r4-r12,lr}
;;;246    {
000004  4604              MOV      r4,r0
000006  4689              MOV      r9,r1
;;;247      	int i,h,v,bn;
;;;248      	int size;
;;;249      	jpeg_component_info *pcomp;  
;;;250    	cinfo->state=JC_SETTING;
000008  2001              MOVS     r0,#1
00000a  f88400fc          STRB     r0,[r4,#0xfc]
;;;251    	bn=0;
00000e  f04f0a00          MOV      r10,#0
;;;252    	cinfo->max_h_factor=0;
000012  2000              MOVS     r0,#0
000014  f8c400c4          STR      r0,[r4,#0xc4]
;;;253    	cinfo->max_v_factor=0;	
000018  f8c400c8          STR      r0,[r4,#0xc8]
;;;254    	for(i=0;i<cinfo->num_comp;i++)//循环计算每个元件的信息
00001c  4680              MOV      r8,r0
00001e  e025              B        |L22.108|
                  |L22.32|
;;;255    	{
;;;256    		pcomp=&cinfo->comp[i];
000020  eb0801c8          ADD      r1,r8,r8,LSL #3
000024  f104001c          ADD      r0,r4,#0x1c
000028  eb000581          ADD      r5,r0,r1,LSL #2
;;;257    		h=pcomp->h_factor;
00002c  686e              LDR      r6,[r5,#4]
;;;258    		v=pcomp->v_factor;	
00002e  68af              LDR      r7,[r5,#8]
;;;259    		if(cinfo->max_h_factor<h)cinfo->max_h_factor=h;
000030  f8d400c4          LDR      r0,[r4,#0xc4]
000034  42b0              CMP      r0,r6
000036  da01              BGE      |L22.60|
000038  f8c460c4          STR      r6,[r4,#0xc4]
                  |L22.60|
;;;260    		if(cinfo->max_v_factor<v)cinfo->max_v_factor=v;
00003c  f8d400c8          LDR      r0,[r4,#0xc8]
000040  42b8              CMP      r0,r7
000042  da01              BGE      |L22.72|
000044  f8c470c8          STR      r7,[r4,#0xc8]
                  |L22.72|
;;;261    		bn+=(h*v);	
000048  fb06aa07          MLA      r10,r6,r7,r10
;;;262    		//在这里申请内存空间,但要在jpeg_destory_compress()中须释放它,所以用户必须在完成压缩时调用它
;;;263    		pcomp->num_dct_table=h*v;
00004c  fb06f007          MUL      r0,r6,r7
000050  61a8              STR      r0,[r5,#0x18]
;;;264    		size=sizeof(DCTBLOCK)*pcomp->num_dct_table;
000052  69a8              LDR      r0,[r5,#0x18]
000054  ea4f1bc0          LSL      r11,r0,#7
;;;265    		pcomp->dct_table=(DCTBLOCK*)(dcttab[i]);//malloc(size);
000058  482b              LDR      r0,|L22.264|
00005a  eb002048          ADD      r0,r0,r8,LSL #9
00005e  61e8              STR      r0,[r5,#0x1c]
;;;266    		memset((void*)(pcomp->dct_table),0,size);
000060  4659              MOV      r1,r11
000062  69e8              LDR      r0,[r5,#0x1c]
000064  f7fffffe          BL       __aeabi_memclr
000068  f1080801          ADD      r8,r8,#1              ;254
                  |L22.108|
00006c  69a0              LDR      r0,[r4,#0x18]         ;254
00006e  4540              CMP      r0,r8                 ;254
000070  dcd6              BGT      |L22.32|
;;;267    	}	
;;;268    	//if(bn>MAX_BLOCK_IN_MCU)exit(1);	
;;;269    	cinfo->block_in_mcu=bn;
000072  344c              ADDS     r4,r4,#0x4c
000074  f8c4a068          STR      r10,[r4,#0x68]
;;;270    	cinfo->mcu_width=cinfo->max_h_factor*DCTSIZE;
000078  6fa0              LDR      r0,[r4,#0x78]
00007a  00c0              LSLS     r0,r0,#3
00007c  66e0              STR      r0,[r4,#0x6c]
;;;271    	cinfo->mcu_height=cinfo->max_v_factor*DCTSIZE;
00007e  6fe0              LDR      r0,[r4,#0x7c]
000080  00c0              LSLS     r0,r0,#3
000082  6720              STR      r0,[r4,#0x70]
;;;272    	cinfo->mcu_blocks=cinfo->mcu_width*cinfo->mcu_height;	
000084  e9d4011b          LDRD     r0,r1,[r4,#0x6c]
000088  4348              MULS     r0,r1,r0
00008a  6760              STR      r0,[r4,#0x74]
;;;273    	//设置和MCU有关的值 
;;;274    	cinfo->mcu_per_row=cinfo->image_width/cinfo->mcu_width;
00008c  f8540c4c          LDR      r0,[r4,#-0x4c]
000090  6ee1              LDR      r1,[r4,#0x6c]
000092  fb90f0f1          SDIV     r0,r0,r1
000096  6620              STR      r0,[r4,#0x60]
;;;275    	if(cinfo->image_width%cinfo->mcu_width!=0)
000098  f8540c4c          LDR      r0,[r4,#-0x4c]
00009c  6ee1              LDR      r1,[r4,#0x6c]
00009e  3c4c              SUBS     r4,r4,#0x4c
0000a0  fb90f2f1          SDIV     r2,r0,r1
0000a4  fb010012          MLS      r0,r1,r2,r0
0000a8  b120              CBZ      r0,|L22.180|
;;;276    	cinfo->mcu_per_row++;
0000aa  f8d400ac          LDR      r0,[r4,#0xac]
0000ae  1c40              ADDS     r0,r0,#1
0000b0  f8c400ac          STR      r0,[r4,#0xac]
                  |L22.180|
;;;277    	cinfo->mcu_rows=cinfo->image_height/cinfo->mcu_height;
0000b4  f8d410bc          LDR      r1,[r4,#0xbc]
0000b8  6860              LDR      r0,[r4,#4]
0000ba  fb90f0f1          SDIV     r0,r0,r1
0000be  f8c400b0          STR      r0,[r4,#0xb0]
;;;278    	if(cinfo->image_height%cinfo->mcu_height!=0)
0000c2  f8d410bc          LDR      r1,[r4,#0xbc]
0000c6  6860              LDR      r0,[r4,#4]
0000c8  fb90f2f1          SDIV     r2,r0,r1
0000cc  fb010012          MLS      r0,r1,r2,r0
0000d0  b120              CBZ      r0,|L22.220|
;;;279    	cinfo->mcu_rows++;	
0000d2  f8d400b0          LDR      r0,[r4,#0xb0]
0000d6  1c40              ADDS     r0,r0,#1
0000d8  f8c400b0          STR      r0,[r4,#0xb0]
                  |L22.220|
;;;280    	//设置输入缓冲区
;;;281    	cinfo->inbuf_width=cinfo->mcu_per_row*cinfo->mcu_width;
0000dc  f8540fac          LDR      r0,[r4,#0xac]!
0000e0  68e1              LDR      r1,[r4,#0xc]
0000e2  4348              MULS     r0,r1,r0
0000e4  6460              STR      r0,[r4,#0x44]
;;;282    	cinfo->inbuf_height=cinfo->mcu_height;
0000e6  6920              LDR      r0,[r4,#0x10]
0000e8  64a0              STR      r0,[r4,#0x48]
;;;283    	cinfo->inbuf_size=cinfo->inbuf_width*cinfo->inbuf_height*cinfo->num_comp*sizeof(JSAMPLE);
0000ea  e9d40111          LDRD     r0,r1,[r4,#0x44]
0000ee  4348              MULS     r0,r1,r0
0000f0  f8541c94          LDR      r1,[r4,#-0x94]
0000f4  4348              MULS     r0,r1,r0
0000f6  64e0              STR      r0,[r4,#0x4c]
;;;284    	cinfo->inbuf=(JSAMPLE*)inbuf_buf;//malloc(cinfo->inbuf_size);
0000f8  f8c49040          STR      r9,[r4,#0x40]
;;;285     	cinfo->next_line=0;//复状态值
0000fc  2000              MOVS     r0,#0
0000fe  6560              STR      r0,[r4,#0x54]
000100  3cac              SUBS     r4,r4,#0xac
;;;286    }
000102  e8bd9ff0          POP      {r4-r12,pc}
;;;287    ///////////////////////////////////////////////////////////////////////////////////////////
                          ENDP

000106  0000              DCW      0x0000
                  |L22.264|
                          DCD      dcttab

                          AREA ||i.jpeg_finish_compress||, CODE, READONLY, ALIGN=1

                  jpeg_finish_compress PROC
;;;822    //完成缓冲区中剩下数据的压缩编码,并写文件尾到输出文件
;;;823    void jpeg_finish_compress(jpeg_compress_info *cinfo) 
000000  e92d41f0          PUSH     {r4-r8,lr}
;;;824    {
000004  4604              MOV      r4,r0
;;;825      	int i,startline,rowlen;
;;;826      	JSAMPLE *data;
;;;827      	//if(cinfo->state!=JC_START)exit(1);
;;;828      	//完成cinfo->inbuf中数据的压缩
;;;829      	if(cinfo->next_line%cinfo->inbuf_height!=0)
000006  f8d410f4          LDR      r1,[r4,#0xf4]
00000a  f8d40100          LDR      r0,[r4,#0x100]
00000e  fb90f2f1          SDIV     r2,r0,r1
000012  fb010012          MLS      r0,r1,r2,r0
000016  b318              CBZ      r0,|L23.96|
;;;830    	{
;;;831    		rowlen=cinfo->inbuf_width*cinfo->num_comp*sizeof(JSAMPLE);
000018  3484              ADDS     r4,r4,#0x84
00001a  f8541c6c          LDR      r1,[r4,#-0x6c]
00001e  6ee0              LDR      r0,[r4,#0x6c]
000020  fb00f501          MUL      r5,r0,r1
;;;832    		startline=cinfo->next_line%cinfo->inbuf_height;
000024  6f21              LDR      r1,[r4,#0x70]
000026  6fe0              LDR      r0,[r4,#0x7c]
000028  fb90f2f1          SDIV     r2,r0,r1
00002c  fb010712          MLS      r7,r1,r2,r0
;;;833    		data=&cinfo->inbuf[(startline-1)*rowlen];
000030  6ea1              LDR      r1,[r4,#0x68]
000032  3c84              SUBS     r4,r4,#0x84
000034  1e78              SUBS     r0,r7,#1
000036  fb001805          MLA      r8,r0,r5,r1
;;;834    		if(startline!=0)
00003a  b177              CBZ      r7,|L23.90|
;;;835    			for(i=startline;i<cinfo->inbuf_height;i++)
00003c  463e              MOV      r6,r7
00003e  e008              B        |L23.82|
                  |L23.64|
;;;836    				memcpy(&cinfo->inbuf[i*rowlen],data,rowlen);
000040  f8d410ec          LDR      r1,[r4,#0xec]
000044  fb061005          MLA      r0,r6,r5,r1
000048  462a              MOV      r2,r5
00004a  4641              MOV      r1,r8
00004c  f7fffffe          BL       __aeabi_memcpy
000050  1c76              ADDS     r6,r6,#1              ;835
                  |L23.82|
000052  f8d400f4          LDR      r0,[r4,#0xf4]         ;835
000056  42b0              CMP      r0,r6                 ;835
000058  dcf2              BGT      |L23.64|
                  |L23.90|
;;;837        	jint_process_rows(cinfo);  
00005a  4620              MOV      r0,r4
00005c  f7fffffe          BL       jint_process_rows
                  |L23.96|
;;;838      	}
;;;839      	jhuff_flush_buffer(cinfo); 
000060  4620              MOV      r0,r4
000062  f7fffffe          BL       jhuff_flush_buffer
;;;840      	jmkr_write_end(cinfo);//添加JPEG文件尾  	
000066  4620              MOV      r0,r4
000068  f7fffffe          BL       jmkr_write_end
;;;841    }
00006c  e8bd81f0          POP      {r4-r8,pc}
;;;842    //清除/释放缓冲区
                          ENDP


                          AREA ||i.jpeg_set_default||, CODE, READONLY, ALIGN=2

                  jpeg_set_default PROC
;;;125    //设置默认参数
;;;126    void jpeg_set_default(jpeg_compress_info *cinfo,u8 *inbuf_buf) 
000000  b570              PUSH     {r4-r6,lr}
;;;127    {
000002  4604              MOV      r4,r0
000004  460d              MOV      r5,r1
;;;128      	cinfo->precision=8;//采样精度8  
000006  2008              MOVS     r0,#8
000008  60e0              STR      r0,[r4,#0xc]
;;;129      	cinfo->in_color_space=JCS_RGB;//色彩空间
00000a  2002              MOVS     r0,#2
00000c  7520              STRB     r0,[r4,#0x14]
;;;130      	//cinfo->quality=0.2f;//图像质量,值越小质量越好 
;;;131    	
;;;132    	cinfo->quality=1.1f;//图像质量,值越小质量越好 
00000e  4818              LDR      r0,|L24.112|
000010  6120              STR      r0,[r4,#0x10]
;;;133    	
;;;134      	//初始化元件颜色为YCbCr彩色  
;;;135      	cinfo->num_comp=3;//元件数量为3
000012  2003              MOVS     r0,#3
000014  61a0              STR      r0,[r4,#0x18]
;;;136      	SET_COMP(cinfo->comp[0],1,2,2,0,0,0);//
000016  2001              MOVS     r0,#1
000018  7720              STRB     r0,[r4,#0x1c]
00001a  2101              MOVS     r1,#1
00001c  7761              STRB     r1,[r4,#0x1d]
00001e  2102              MOVS     r1,#2
000020  6221              STR      r1,[r4,#0x20]
000022  6261              STR      r1,[r4,#0x24]
000024  2100              MOVS     r1,#0
000026  62a1              STR      r1,[r4,#0x28]
000028  62e1              STR      r1,[r4,#0x2c]
00002a  6321              STR      r1,[r4,#0x30]
;;;137      	SET_COMP(cinfo->comp[1],2,1,1,1,1,1);//
00002c  2102              MOVS     r1,#2
00002e  f8841040          STRB     r1,[r4,#0x40]
000032  f8841041          STRB     r1,[r4,#0x41]
000036  2101              MOVS     r1,#1
000038  6461              STR      r1,[r4,#0x44]
00003a  64a1              STR      r1,[r4,#0x48]
00003c  64e1              STR      r1,[r4,#0x4c]
00003e  6521              STR      r1,[r4,#0x50]
000040  6561              STR      r1,[r4,#0x54]
;;;138      	SET_COMP(cinfo->comp[2],3,1,1,1,1,1);//  	
000042  2103              MOVS     r1,#3
000044  f8841064          STRB     r1,[r4,#0x64]
000048  f8841065          STRB     r1,[r4,#0x65]
00004c  2101              MOVS     r1,#1
00004e  66a1              STR      r1,[r4,#0x68]
000050  66e1              STR      r1,[r4,#0x6c]
000052  6721              STR      r1,[r4,#0x70]
000054  6761              STR      r1,[r4,#0x74]
000056  67a1              STR      r1,[r4,#0x78]
;;;139      	jint_std_quant_tables(cinfo);//设置标准量化表  	
000058  4620              MOV      r0,r4
00005a  f7fffffe          BL       jint_std_quant_tables
;;;140      	jint_std_huff_tables(cinfo);//设置标准huffman表  
00005e  4620              MOV      r0,r4
000060  f7fffffe          BL       jint_std_huff_tables
;;;141      	jpeg_calc_value(cinfo,inbuf_buf);//其它变量
000064  4629              MOV      r1,r5
000066  4620              MOV      r0,r4
000068  f7fffffe          BL       jpeg_calc_value
;;;142    }
00006c  bd70              POP      {r4-r6,pc}
;;;143    //设置标准量化表
                          ENDP

00006e  0000              DCW      0x0000
                  |L24.112|
                          DCD      0x3f8ccccd

                          AREA ||i.jpeg_start_compress||, CODE, READONLY, ALIGN=1

                  jpeg_start_compress PROC
;;;302    //开始压缩编码,写入头信息
;;;303    void jpeg_start_compress(jpeg_compress_info *cinfo) 
000000  b570              PUSH     {r4-r6,lr}
;;;304    {
000002  4604              MOV      r4,r0
;;;305      	int i;
;;;306    
;;;307      	jmkr_write_start(cinfo);//写头信息,包括文件头,帧头和扫描开始  
000004  4620              MOV      r0,r4
000006  f7fffffe          BL       jmkr_write_start
;;;308      	cinfo->state=JC_START;//保存当前状态(开始)
00000a  2002              MOVS     r0,#2
00000c  f88400fc          STRB     r0,[r4,#0xfc]
;;;309      	cinfo->next_line=0;//初始化开始变量
000010  2000              MOVS     r0,#0
000012  f8c40100          STR      r0,[r4,#0x100]
;;;310      	for(i=0;i<cinfo->num_comp;i++)cinfo->comp[i].preval=0;
000016  2500              MOVS     r5,#0
000018  e008              B        |L25.44|
                  |L25.26|
00001a  2100              MOVS     r1,#0
00001c  eb0502c5          ADD      r2,r5,r5,LSL #3
000020  f104001c          ADD      r0,r4,#0x1c
000024  eb000082          ADD      r0,r0,r2,LSL #2
000028  8401              STRH     r1,[r0,#0x20]
00002a  1c6d              ADDS     r5,r5,#1
                  |L25.44|
00002c  69a0              LDR      r0,[r4,#0x18]
00002e  42a8              CMP      r0,r5
000030  dcf3              BGT      |L25.26|
;;;311    }
000032  bd70              POP      {r4-r6,pc}
;;;312    //写头信息
                          ENDP


                          AREA ||i.jutl_cc_rgb2ycc||, CODE, READONLY, ALIGN=2

                  jutl_cc_rgb2ycc PROC
;;;500    //RGB转YUV
;;;501    void jutl_cc_rgb2ycc(JSAMPLE *data,int num) 
000000  e92d4ff0          PUSH     {r4-r11,lr}
;;;502    {
000004  b085              SUB      sp,sp,#0x14
000006  4606              MOV      r6,r0
000008  460f              MOV      r7,r1
;;;503      	int i;
;;;504      	float a,b,c;
;;;505      	struct three_component_color{
;;;506    		JSAMPLE a,b,c;
;;;507      	} *pcolor;
;;;508    	pcolor=(struct three_component_color*)data;
00000a  4635              MOV      r5,r6
;;;509    	for(i=0;i<num;i++)
00000c  2400              MOVS     r4,#0
00000e  e076              B        |L26.254|
                  |L26.16|
;;;510    	{
;;;511    		a=pcolor[i].a;
000010  eb040144          ADD      r1,r4,r4,LSL #1
000014  5c68              LDRB     r0,[r5,r1]
000016  f7fffffe          BL       __aeabi_ui2f
00001a  4683              MOV      r11,r0
;;;512    		b=pcolor[i].b;
00001c  eb040144          ADD      r1,r4,r4,LSL #1
000020  4429              ADD      r1,r1,r5
000022  7848              LDRB     r0,[r1,#1]
000024  f7fffffe          BL       __aeabi_ui2f
000028  9004              STR      r0,[sp,#0x10]
;;;513    		c=pcolor[i].c;
00002a  eb040144          ADD      r1,r4,r4,LSL #1
00002e  4429              ADD      r1,r1,r5
000030  7888              LDRB     r0,[r1,#2]
000032  f7fffffe          BL       __aeabi_ui2f
000036  9003              STR      r0,[sp,#0xc]
;;;514    		pcolor[i].a=(0.29900f*a+0.58700f*b+0.11400f*c);//Y color
000038  4833              LDR      r0,|L26.264|
00003a  9903              LDR      r1,[sp,#0xc]
00003c  f7fffffe          BL       __aeabi_fmul
000040  9002              STR      r0,[sp,#8]
000042  4832              LDR      r0,|L26.268|
000044  9904              LDR      r1,[sp,#0x10]
000046  f7fffffe          BL       __aeabi_fmul
00004a  4659              MOV      r1,r11
00004c  9001              STR      r0,[sp,#4]
00004e  4830              LDR      r0,|L26.272|
000050  f7fffffe          BL       __aeabi_fmul
000054  4682              MOV      r10,r0
000056  9901              LDR      r1,[sp,#4]
000058  f7fffffe          BL       __aeabi_fadd
00005c  4681              MOV      r9,r0
00005e  9902              LDR      r1,[sp,#8]
000060  f7fffffe          BL       __aeabi_fadd
000064  4680              MOV      r8,r0
000066  f7fffffe          BL       __aeabi_f2uiz
00006a  eb040144          ADD      r1,r4,r4,LSL #1
00006e  5468              STRB     r0,[r5,r1]
;;;515    		pcolor[i].b=(-0.16874f*a-0.33126f*b+0.50000f*c+128);//Cb color
000070  f04f507c          MOV      r0,#0x3f000000
000074  9903              LDR      r1,[sp,#0xc]
000076  f7fffffe          BL       __aeabi_fmul
00007a  9002              STR      r0,[sp,#8]
00007c  4825              LDR      r0,|L26.276|
00007e  9904              LDR      r1,[sp,#0x10]
000080  f7fffffe          BL       __aeabi_fmul
000084  4659              MOV      r1,r11
000086  9001              STR      r0,[sp,#4]
000088  4823              LDR      r0,|L26.280|
00008a  f7fffffe          BL       __aeabi_fmul
00008e  9000              STR      r0,[sp,#0]
000090  9901              LDR      r1,[sp,#4]
000092  f7fffffe          BL       __aeabi_fsub
000096  4682              MOV      r10,r0
000098  9902              LDR      r1,[sp,#8]
00009a  f7fffffe          BL       __aeabi_fadd
00009e  4681              MOV      r9,r0
0000a0  f04f4186          MOV      r1,#0x43000000
0000a4  f7fffffe          BL       __aeabi_fadd
0000a8  4680              MOV      r8,r0
0000aa  f7fffffe          BL       __aeabi_f2uiz
0000ae  eb040144          ADD      r1,r4,r4,LSL #1
0000b2  4429              ADD      r1,r1,r5
0000b4  7048              STRB     r0,[r1,#1]
;;;516    		pcolor[i].c=(0.50000f*a-0.41869f*b-0.08131f*c+128);//Cr color 
0000b6  4819              LDR      r0,|L26.284|
0000b8  9903              LDR      r1,[sp,#0xc]
0000ba  f7fffffe          BL       __aeabi_fmul
0000be  9002              STR      r0,[sp,#8]
0000c0  4817              LDR      r0,|L26.288|
0000c2  9904              LDR      r1,[sp,#0x10]
0000c4  f7fffffe          BL       __aeabi_fmul
0000c8  4659              MOV      r1,r11
0000ca  9001              STR      r0,[sp,#4]
0000cc  f04f507c          MOV      r0,#0x3f000000
0000d0  f7fffffe          BL       __aeabi_fmul
0000d4  9000              STR      r0,[sp,#0]
0000d6  9901              LDR      r1,[sp,#4]
0000d8  f7fffffe          BL       __aeabi_fsub
0000dc  4682              MOV      r10,r0
0000de  9902              LDR      r1,[sp,#8]
0000e0  f7fffffe          BL       __aeabi_fsub
0000e4  4681              MOV      r9,r0
0000e6  f04f4186          MOV      r1,#0x43000000
0000ea  f7fffffe          BL       __aeabi_fadd
0000ee  4680              MOV      r8,r0
0000f0  f7fffffe          BL       __aeabi_f2uiz
0000f4  eb040144          ADD      r1,r4,r4,LSL #1
0000f8  4429              ADD      r1,r1,r5
0000fa  7088              STRB     r0,[r1,#2]
0000fc  1c64              ADDS     r4,r4,#1              ;509
                  |L26.254|
0000fe  42bc              CMP      r4,r7                 ;509
000100  db86              BLT      |L26.16|
;;;517      	}
;;;518    }
000102  b005              ADD      sp,sp,#0x14
000104  e8bd8ff0          POP      {r4-r11,pc}
;;;519    //处理所有元件中的MCU数据
                          ENDP

                  |L26.264|
                          DCD      0x3de978d5
                  |L26.268|
                          DCD      0x3f1645a2
                  |L26.272|
                          DCD      0x3e991687
                  |L26.276|
                          DCD      0x3ea99ae9
                  |L26.280|
                          DCD      0xbe2cca2e
                  |L26.284|
                          DCD      0x3da685db
                  |L26.288|
                          DCD      0x3ed65e89

                          AREA ||i.jutl_write_byte||, CODE, READONLY, ALIGN=2

                  jutl_write_byte PROC
;;;289    u16 wr_pt=0;
;;;290    void jutl_write_byte(u8 c,char *f,jpeg_compress_info *cinfo)
000000  b5f8              PUSH     {r3-r7,lr}
;;;291    {
000002  4605              MOV      r5,r0
000004  460e              MOV      r6,r1
000006  4614              MOV      r4,r2
;;;292    	UINT WRBytes;
;;;293    
;;;294    	write_buf[wr_pt]=c;
000008  480e              LDR      r0,|L27.68|
00000a  490f              LDR      r1,|L27.72|
00000c  8809              LDRH     r1,[r1,#0]  ; wr_pt
00000e  5445              STRB     r5,[r0,r1]
;;;295    	wr_pt++;
000010  480d              LDR      r0,|L27.72|
000012  8800              LDRH     r0,[r0,#0]  ; wr_pt
000014  1c40              ADDS     r0,r0,#1
000016  490c              LDR      r1,|L27.72|
000018  8008              STRH     r0,[r1,#0]
;;;296      	if(wr_pt==512||cinfo->state==JC_FINISH)//512字节写一次
00001a  4608              MOV      r0,r1
00001c  8800              LDRH     r0,[r0,#0]  ; wr_pt
00001e  f5b07f00          CMP      r0,#0x200
000022  d003              BEQ      |L27.44|
000024  f89400fc          LDRB     r0,[r4,#0xfc]
000028  2803              CMP      r0,#3
00002a  d10a              BNE      |L27.66|
                  |L27.44|
;;;297    	{
;;;298    		f_write(cinfo->fileW,write_buf,wr_pt,&WRBytes);
00002c  466b              MOV      r3,sp
00002e  4906              LDR      r1,|L27.72|
000030  880a              LDRH     r2,[r1,#0]  ; wr_pt
000032  4904              LDR      r1,|L27.68|
000034  f8d40104          LDR      r0,[r4,#0x104]
000038  f7fffffe          BL       f_write
;;;299    		wr_pt=0;
00003c  2000              MOVS     r0,#0
00003e  4902              LDR      r1,|L27.72|
000040  8008              STRH     r0,[r1,#0]
                  |L27.66|
;;;300    	}
;;;301    }
000042  bdf8              POP      {r3-r7,pc}
;;;302    //开始压缩编码,写入头信息
                          ENDP

                  |L27.68|
                          DCD      write_buf
                  |L27.72|
                          DCD      wr_pt

                          AREA ||i.jutl_zigzag_sort||, CODE, READONLY, ALIGN=2

                  jutl_zigzag_sort PROC
;;;159    //Z形排序
;;;160    void jutl_zigzag_sort(DCTBLOCK dptr) 
000000  b530              PUSH     {r4,r5,lr}
;;;161    {
000002  b0a1              SUB      sp,sp,#0x84
000004  4605              MOV      r5,r0
;;;162      	int i;
;;;163    
;;;164      	DCTBLOCK dtmp;
;;;165      	memcpy(&dtmp,dptr,sizeof(DCTBLOCK));
000006  2280              MOVS     r2,#0x80
000008  4629              MOV      r1,r5
00000a  a801              ADD      r0,sp,#4
00000c  f7fffffe          BL       __aeabi_memcpy
;;;166      	for(i=0;i<DCTSIZE2;i++)dptr[zz_order[i]]=dtmp[i];
000010  2400              MOVS     r4,#0
000012  e007              B        |L28.36|
                  |L28.20|
000014  a801              ADD      r0,sp,#4
000016  f8300014          LDRH     r0,[r0,r4,LSL #1]
00001a  4904              LDR      r1,|L28.44|
00001c  5d09              LDRB     r1,[r1,r4]
00001e  f8250011          STRH     r0,[r5,r1,LSL #1]
000022  1c64              ADDS     r4,r4,#1
                  |L28.36|
000024  2c40              CMP      r4,#0x40
000026  dbf5              BLT      |L28.20|
;;;167    }
000028  b021              ADD      sp,sp,#0x84
00002a  bd30              POP      {r4,r5,pc}
;;;168    //设置标准huffman表
                          ENDP

                  |L28.44|
                          DCD      zz_order

                          AREA ||.bss||, DATA, NOINIT, ALIGN=2

                  JQUANT_TBL_2
                          %        256
                  JHUFF_TBL_4
                          %        5192
                  dcttab
                          %        1536
                  gtmp_hsize
                          %        512
                  gtmp_hcode
                          %        512
                  write_buf
                          %        512
                  temp_dct1
                          %        256

                          AREA ||.constdata||, DATA, READONLY, ALIGN=1

                  jfcode
000000  ffe00010          DCB      0xff,0xe0,0x00,0x10
000004  4a464946          DCB      0x4a,0x46,0x49,0x46
000008  00010100          DCB      0x00,0x01,0x01,0x00
00000c  00010001          DCB      0x00,0x01,0x00,0x01
000010  0000              DCB      0x00,0x00
                  std_luminance_quant_tbl
000012  0010              DCW      0x0010
000014  000b000a          DCW      0x000b,0x000a
000018  00100018          DCW      0x0010,0x0018
00001c  00280033          DCW      0x0028,0x0033
000020  003d000c          DCW      0x003d,0x000c
000024  000c000e          DCW      0x000c,0x000e
000028  0013001a          DCW      0x0013,0x001a
00002c  003a003c          DCW      0x003a,0x003c
000030  0037000e          DCW      0x0037,0x000e
000034  000d0010          DCW      0x000d,0x0010
000038  00180028          DCW      0x0018,0x0028
00003c  00390045          DCW      0x0039,0x0045
000040  0038000e          DCW      0x0038,0x000e
000044  00110016          DCW      0x0011,0x0016
000048  001d0033          DCW      0x001d,0x0033
00004c  00570050          DCW      0x0057,0x0050
000050  003e0012          DCW      0x003e,0x0012
000054  00160025          DCW      0x0016,0x0025
000058  00380044          DCW      0x0038,0x0044
00005c  006d0067          DCW      0x006d,0x0067
000060  004d0018          DCW      0x004d,0x0018
000064  00230037          DCW      0x0023,0x0037
000068  00400051          DCW      0x0040,0x0051
00006c  00680071          DCW      0x0068,0x0071
000070  005c0031          DCW      0x005c,0x0031
000074  0040004e          DCW      0x0040,0x004e
000078  00570067          DCW      0x0057,0x0067
00007c  00790078          DCW      0x0079,0x0078
000080  00650048          DCW      0x0065,0x0048
000084  005c005f          DCW      0x005c,0x005f
000088  00620070          DCW      0x0062,0x0070
00008c  00640067          DCW      0x0064,0x0067
000090  0063              DCW      0x0063
                  std_chrominance_quant_tbl
000092  0011              DCW      0x0011
000094  00120018          DCW      0x0012,0x0018
000098  002f0063          DCW      0x002f,0x0063
00009c  00630063          DCW      0x0063,0x0063
0000a0  00630012          DCW      0x0063,0x0012
0000a4  0015001a          DCW      0x0015,0x001a
0000a8  00420063          DCW      0x0042,0x0063
0000ac  00630063          DCW      0x0063,0x0063
0000b0  00630018          DCW      0x0063,0x0018
0000b4  001a0038          DCW      0x001a,0x0038
0000b8  00630063          DCW      0x0063,0x0063
0000bc  00630063          DCW      0x0063,0x0063
0000c0  0063002f          DCW      0x0063,0x002f
0000c4  00420063          DCW      0x0042,0x0063
0000c8  00630063          DCW      0x0063,0x0063
0000cc  00630063          DCW      0x0063,0x0063
0000d0  00630063          DCW      0x0063,0x0063
0000d4  00630063          DCW      0x0063,0x0063
0000d8  00630063          DCW      0x0063,0x0063
0000dc  00630063          DCW      0x0063,0x0063
0000e0  00630063          DCW      0x0063,0x0063
0000e4  00630063          DCW      0x0063,0x0063
0000e8  00630063          DCW      0x0063,0x0063
0000ec  00630063          DCW      0x0063,0x0063
0000f0  00630063          DCW      0x0063,0x0063
0000f4  00630063          DCW      0x0063,0x0063
0000f8  00630063          DCW      0x0063,0x0063
0000fc  00630063          DCW      0x0063,0x0063
000100  00630063          DCW      0x0063,0x0063
000104  00630063          DCW      0x0063,0x0063
000108  00630063          DCW      0x0063,0x0063
00010c  00630063          DCW      0x0063,0x0063
000110  0063              DCW      0x0063
                  zz_order
000112  0001              DCB      0x00,0x01
000114  05060e0f          DCB      0x05,0x06,0x0e,0x0f
000118  1b1c0204          DCB      0x1b,0x1c,0x02,0x04
00011c  070d101a          DCB      0x07,0x0d,0x10,0x1a
000120  1d2a0308          DCB      0x1d,0x2a,0x03,0x08
000124  0c11191e          DCB      0x0c,0x11,0x19,0x1e
000128  292b090b          DCB      0x29,0x2b,0x09,0x0b
00012c  12181f28          DCB      0x12,0x18,0x1f,0x28
000130  2c350a13          DCB      0x2c,0x35,0x0a,0x13
000134  1720272d          DCB      0x17,0x20,0x27,0x2d
000138  34361416          DCB      0x34,0x36,0x14,0x16
00013c  21262e33          DCB      0x21,0x26,0x2e,0x33
000140  373c1522          DCB      0x37,0x3c,0x15,0x22
000144  252f3238          DCB      0x25,0x2f,0x32,0x38
000148  3b3d2324          DCB      0x3b,0x3d,0x23,0x24
00014c  3031393a          DCB      0x30,0x31,0x39,0x3a
000150  3e3f              DCB      0x3e,0x3f
                  bits_dc_luminance
000152  0000              DCB      0x00,0x00
000154  01050101          DCB      0x01,0x05,0x01,0x01
000158  01010101          DCB      0x01,0x01,0x01,0x01
00015c  00000000          DCB      0x00,0x00,0x00,0x00
000160  000000            DCB      0x00,0x00,0x00
                  val_dc_luminance
000163  00                DCB      0x00
000164  01020304          DCB      0x01,0x02,0x03,0x04
000168  05060708          DCB      0x05,0x06,0x07,0x08
00016c  090a0b            DCB      0x09,0x0a,0x0b
                  bits_dc_chrominance
00016f  00                DCB      0x00
000170  00030101          DCB      0x00,0x03,0x01,0x01
000174  01010101          DCB      0x01,0x01,0x01,0x01
000178  01010100          DCB      0x01,0x01,0x01,0x00
00017c  00000000          DCB      0x00,0x00,0x00,0x00
                  val_dc_chrominance
000180  00010203          DCB      0x00,0x01,0x02,0x03
000184  04050607          DCB      0x04,0x05,0x06,0x07
000188  08090a0b          DCB      0x08,0x09,0x0a,0x0b
                  bits_ac_luminance
00018c  00000201          DCB      0x00,0x00,0x02,0x01
000190  03030204          DCB      0x03,0x03,0x02,0x04
000194  03050504          DCB      0x03,0x05,0x05,0x04
000198  04000001          DCB      0x04,0x00,0x00,0x01
00019c  7d                DCB      0x7d
                  bits_ac_chrominance
00019d  000002            DCB      0x00,0x00,0x02
0001a0  01020404          DCB      0x01,0x02,0x04,0x04
0001a4  03040705          DCB      0x03,0x04,0x07,0x05
0001a8  04040001          DCB      0x04,0x04,0x00,0x01
0001ac  0277              DCB      0x02,0x77
                  val_ac_luminance
0001ae  0102              DCB      0x01,0x02
0001b0  03000411          DCB      0x03,0x00,0x04,0x11
0001b4  05122131          DCB      0x05,0x12,0x21,0x31
0001b8  41061351          DCB      0x41,0x06,0x13,0x51
0001bc  61072271          DCB      0x61,0x07,0x22,0x71
0001c0  14328191          DCB      0x14,0x32,0x81,0x91
0001c4  a1082342          DCB      0xa1,0x08,0x23,0x42
0001c8  b1c11552          DCB      0xb1,0xc1,0x15,0x52
0001cc  d1f02433          DCB      0xd1,0xf0,0x24,0x33
0001d0  62728209          DCB      0x62,0x72,0x82,0x09
0001d4  0a161718          DCB      0x0a,0x16,0x17,0x18
0001d8  191a2526          DCB      0x19,0x1a,0x25,0x26
0001dc  2728292a          DCB      0x27,0x28,0x29,0x2a
0001e0  34353637          DCB      0x34,0x35,0x36,0x37
0001e4  38393a43          DCB      0x38,0x39,0x3a,0x43
0001e8  44454647          DCB      0x44,0x45,0x46,0x47
0001ec  48494a53          DCB      0x48,0x49,0x4a,0x53
0001f0  54555657          DCB      0x54,0x55,0x56,0x57
0001f4  58595a63          DCB      0x58,0x59,0x5a,0x63
0001f8  64656667          DCB      0x64,0x65,0x66,0x67
0001fc  68696a73          DCB      0x68,0x69,0x6a,0x73
000200  74757677          DCB      0x74,0x75,0x76,0x77
000204  78797a83          DCB      0x78,0x79,0x7a,0x83
000208  84858687          DCB      0x84,0x85,0x86,0x87
00020c  88898a92          DCB      0x88,0x89,0x8a,0x92
000210  93949596          DCB      0x93,0x94,0x95,0x96
000214  9798999a          DCB      0x97,0x98,0x99,0x9a
000218  a2a3a4a5          DCB      0xa2,0xa3,0xa4,0xa5
00021c  a6a7a8a9          DCB      0xa6,0xa7,0xa8,0xa9
000220  aab2b3b4          DCB      0xaa,0xb2,0xb3,0xb4
000224  b5b6b7b8          DCB      0xb5,0xb6,0xb7,0xb8
000228  b9bac2c3          DCB      0xb9,0xba,0xc2,0xc3
00022c  c4c5c6c7          DCB      0xc4,0xc5,0xc6,0xc7
000230  c8c9cad2          DCB      0xc8,0xc9,0xca,0xd2
000234  d3d4d5d6          DCB      0xd3,0xd4,0xd5,0xd6
000238  d7d8d9da          DCB      0xd7,0xd8,0xd9,0xda
00023c  e1e2e3e4          DCB      0xe1,0xe2,0xe3,0xe4
000240  e5e6e7e8          DCB      0xe5,0xe6,0xe7,0xe8
000244  e9eaf1f2          DCB      0xe9,0xea,0xf1,0xf2
000248  f3f4f5f6          DCB      0xf3,0xf4,0xf5,0xf6
00024c  f7f8f9fa          DCB      0xf7,0xf8,0xf9,0xfa
                  val_ac_chrominance
000250  00010203          DCB      0x00,0x01,0x02,0x03
000254  11040521          DCB      0x11,0x04,0x05,0x21
000258  31061241          DCB      0x31,0x06,0x12,0x41
00025c  51076171          DCB      0x51,0x07,0x61,0x71
000260  13223281          DCB      0x13,0x22,0x32,0x81
000264  08144291          DCB      0x08,0x14,0x42,0x91
000268  a1b1c109          DCB      0xa1,0xb1,0xc1,0x09
00026c  233352f0          DCB      0x23,0x33,0x52,0xf0
000270  156272d1          DCB      0x15,0x62,0x72,0xd1
000274  0a162434          DCB      0x0a,0x16,0x24,0x34
000278  e125f117          DCB      0xe1,0x25,0xf1,0x17
00027c  18191a26          DCB      0x18,0x19,0x1a,0x26
000280  2728292a          DCB      0x27,0x28,0x29,0x2a
000284  35363738          DCB      0x35,0x36,0x37,0x38
000288  393a4344          DCB      0x39,0x3a,0x43,0x44
00028c  45464748          DCB      0x45,0x46,0x47,0x48
000290  494a5354          DCB      0x49,0x4a,0x53,0x54
000294  55565758          DCB      0x55,0x56,0x57,0x58
000298  595a6364          DCB      0x59,0x5a,0x63,0x64
00029c  65666768          DCB      0x65,0x66,0x67,0x68
0002a0  696a7374          DCB      0x69,0x6a,0x73,0x74
0002a4  75767778          DCB      0x75,0x76,0x77,0x78
0002a8  797a8283          DCB      0x79,0x7a,0x82,0x83
0002ac  84858687          DCB      0x84,0x85,0x86,0x87
0002b0  88898a92          DCB      0x88,0x89,0x8a,0x92
0002b4  93949596          DCB      0x93,0x94,0x95,0x96
0002b8  9798999a          DCB      0x97,0x98,0x99,0x9a
0002bc  a2a3a4a5          DCB      0xa2,0xa3,0xa4,0xa5
0002c0  a6a7a8a9          DCB      0xa6,0xa7,0xa8,0xa9
0002c4  aab2b3b4          DCB      0xaa,0xb2,0xb3,0xb4
0002c8  b5b6b7b8          DCB      0xb5,0xb6,0xb7,0xb8
0002cc  b9bac2c3          DCB      0xb9,0xba,0xc2,0xc3
0002d0  c4c5c6c7          DCB      0xc4,0xc5,0xc6,0xc7
0002d4  c8c9cad2          DCB      0xc8,0xc9,0xca,0xd2
0002d8  d3d4d5d6          DCB      0xd3,0xd4,0xd5,0xd6
0002dc  d7d8d9da          DCB      0xd7,0xd8,0xd9,0xda
0002e0  e2e3e4e5          DCB      0xe2,0xe3,0xe4,0xe5
0002e4  e6e7e8e9          DCB      0xe6,0xe7,0xe8,0xe9
0002e8  eaf2f3f4          DCB      0xea,0xf2,0xf3,0xf4
0002ec  f5f6f7f8          DCB      0xf5,0xf6,0xf7,0xf8
0002f0  f9fa              DCB      0xf9,0xfa

                          AREA ||.data||, DATA, ALIGN=2

                  buffer
                          DCD      0x00000000
                  bits_in_buffer
                          DCD      0x00000000
                  fileW
                          DCD      0x00000000
                  r
00000c  00                DCB      0x00
                  g
00000d  00                DCB      0x00
                  b
00000e  0000              DCB      0x00,0x00
                  wr_pt
000010  0000              DCW      0x0000
